
AVRASM ver. 2.1.30  C:\Users\anwar\OneDrive\Desktop\PDC\PDC battery charger\HMI v2.22\List\ver2.asm Fri Mar 06 15:11:11 2020

C:\Users\anwar\OneDrive\Desktop\PDC\PDC battery charger\HMI v2.22\List\ver2.asm(1061): warning: Register r4 already defined by the .DEF directive
C:\Users\anwar\OneDrive\Desktop\PDC\PDC battery charger\HMI v2.22\List\ver2.asm(1062): warning: Register r6 already defined by the .DEF directive
C:\Users\anwar\OneDrive\Desktop\PDC\PDC battery charger\HMI v2.22\List\ver2.asm(1063): warning: Register r8 already defined by the .DEF directive
C:\Users\anwar\OneDrive\Desktop\PDC\PDC battery charger\HMI v2.22\List\ver2.asm(1064): warning: Register r10 already defined by the .DEF directive
C:\Users\anwar\OneDrive\Desktop\PDC\PDC battery charger\HMI v2.22\List\ver2.asm(1065): warning: Register r12 already defined by the .DEF directive
                 
                 
                 ;CodeVisionAVR C Compiler V2.05.0 Professional
                 ;(C) Copyright 1998-2010 Pavel Haiduc, HP InfoTech s.r.l.
                 ;http://www.hpinfotech.com
                 
                 ;Chip type                : ATmega128
                 ;Program type             : Application
                 ;Clock frequency          : 16.000000 MHz
                 ;Memory model             : Small
                 ;Optimize for             : Size
                 ;(s)printf features       : int, width
                 ;(s)scanf features        : int, width
                 ;External RAM size        : 0
                 ;Data Stack size          : 1024 byte(s)
                 ;Heap size                : 0 byte(s)
                 ;Promote 'char' to 'int'  : Yes
                 ;'char' is unsigned       : Yes
                 ;8 bit enums              : Yes
                 ;global 'const' stored in FLASH: No
                 ;Enhanced core instructions    : On
                 ;Smart register allocation     : On
                 ;Automatic register allocation : On
                 
                 	#pragma AVRPART ADMIN PART_NAME ATmega128
                 	#pragma AVRPART MEMORY PROG_FLASH 131072
                 	#pragma AVRPART MEMORY EEPROM 4096
                 	#pragma AVRPART MEMORY INT_SRAM SIZE 4351
                 	#pragma AVRPART MEMORY INT_SRAM START_ADDR 0x100
                 
                 	#define CALL_SUPPORTED 1
                 
                 	.LISTMAC
                 	.EQU UDRE=0x5
                 	.EQU RXC=0x7
                 	.EQU USR=0xB
                 	.EQU UDR=0xC
                 	.EQU SPSR=0xE
                 	.EQU SPDR=0xF
                 	.EQU EERE=0x0
                 	.EQU EEWE=0x1
                 	.EQU EEMWE=0x2
                 	.EQU EECR=0x1C
                 	.EQU EEDR=0x1D
                 	.EQU EEARL=0x1E
                 	.EQU EEARH=0x1F
                 	.EQU WDTCR=0x21
                 	.EQU MCUCR=0x35
                 	.EQU RAMPZ=0x3B
                 	.EQU SPL=0x3D
                 	.EQU SPH=0x3E
                 	.EQU SREG=0x3F
                 	.EQU XMCRA=0x6D
                 	.EQU XMCRB=0x6C
                 
                 	.DEF R0X0=R0
                 	.DEF R0X1=R1
                 	.DEF R0X2=R2
                 	.DEF R0X3=R3
                 	.DEF R0X4=R4
                 	.DEF R0X5=R5
                 	.DEF R0X6=R6
                 	.DEF R0X7=R7
                 	.DEF R0X8=R8
                 	.DEF R0X9=R9
                 	.DEF R0XA=R10
                 	.DEF R0XB=R11
                 	.DEF R0XC=R12
                 	.DEF R0XD=R13
                 	.DEF R0XE=R14
                 	.DEF R0XF=R15
                 	.DEF R0X10=R16
                 	.DEF R0X11=R17
                 	.DEF R0X12=R18
                 	.DEF R0X13=R19
                 	.DEF R0X14=R20
                 	.DEF R0X15=R21
                 	.DEF R0X16=R22
                 	.DEF R0X17=R23
                 	.DEF R0X18=R24
                 	.DEF R0X19=R25
                 	.DEF R0X1A=R26
                 	.DEF R0X1B=R27
                 	.DEF R0X1C=R28
                 	.DEF R0X1D=R29
                 	.DEF R0X1E=R30
                 	.DEF R0X1F=R31
                 
                 	.EQU __SRAM_START=0x0100
                 	.EQU __SRAM_END=0x10FF
                 	.EQU __DSTACK_SIZE=0x0400
                 	.EQU __HEAP_SIZE=0x0000
                 	.EQU __CLEAR_SRAM_SIZE=__SRAM_END-__SRAM_START+1
                 
                 	.MACRO __CPD1N
                 	CPI  R30,LOW(@0)
                 	LDI  R26,HIGH(@0)
                 	CPC  R31,R26
                 	LDI  R26,BYTE3(@0)
                 	CPC  R22,R26
                 	LDI  R26,BYTE4(@0)
                 	CPC  R23,R26
                 	.ENDM
                 
                 	.MACRO __CPD2N
                 	CPI  R26,LOW(@0)
                 	LDI  R30,HIGH(@0)
                 	CPC  R27,R30
                 	LDI  R30,BYTE3(@0)
                 	CPC  R24,R30
                 	LDI  R30,BYTE4(@0)
                 	CPC  R25,R30
                 	.ENDM
                 
                 	.MACRO __CPWRR
                 	CP   R@0,R@2
                 	CPC  R@1,R@3
                 	.ENDM
                 
                 	.MACRO __CPWRN
                 	CPI  R@0,LOW(@2)
                 	LDI  R30,HIGH(@2)
                 	CPC  R@1,R30
                 	.ENDM
                 
                 	.MACRO __ADDB1MN
                 	SUBI R30,LOW(-@0-(@1))
                 	.ENDM
                 
                 	.MACRO __ADDB2MN
                 	SUBI R26,LOW(-@0-(@1))
                 	.ENDM
                 
                 	.MACRO __ADDW1MN
                 	SUBI R30,LOW(-@0-(@1))
                 	SBCI R31,HIGH(-@0-(@1))
                 	.ENDM
                 
                 	.MACRO __ADDW2MN
                 	SUBI R26,LOW(-@0-(@1))
                 	SBCI R27,HIGH(-@0-(@1))
                 	.ENDM
                 
                 	.MACRO __ADDW1FN
                 	SUBI R30,LOW(-2*@0-(@1))
                 	SBCI R31,HIGH(-2*@0-(@1))
                 	.ENDM
                 
                 	.MACRO __ADDD1FN
                 	SUBI R30,LOW(-2*@0-(@1))
                 	SBCI R31,HIGH(-2*@0-(@1))
                 	SBCI R22,BYTE3(-2*@0-(@1))
                 	.ENDM
                 
                 	.MACRO __ADDD1N
                 	SUBI R30,LOW(-@0)
                 	SBCI R31,HIGH(-@0)
                 	SBCI R22,BYTE3(-@0)
                 	SBCI R23,BYTE4(-@0)
                 	.ENDM
                 
                 	.MACRO __ADDD2N
                 	SUBI R26,LOW(-@0)
                 	SBCI R27,HIGH(-@0)
                 	SBCI R24,BYTE3(-@0)
                 	SBCI R25,BYTE4(-@0)
                 	.ENDM
                 
                 	.MACRO __SUBD1N
                 	SUBI R30,LOW(@0)
                 	SBCI R31,HIGH(@0)
                 	SBCI R22,BYTE3(@0)
                 	SBCI R23,BYTE4(@0)
                 	.ENDM
                 
                 	.MACRO __SUBD2N
                 	SUBI R26,LOW(@0)
                 	SBCI R27,HIGH(@0)
                 	SBCI R24,BYTE3(@0)
                 	SBCI R25,BYTE4(@0)
                 	.ENDM
                 
                 	.MACRO __ANDBMNN
                 	LDS  R30,@0+(@1)
                 	ANDI R30,LOW(@2)
                 	STS  @0+(@1),R30
                 	.ENDM
                 
                 	.MACRO __ANDWMNN
                 	LDS  R30,@0+(@1)
                 	ANDI R30,LOW(@2)
                 	STS  @0+(@1),R30
                 	LDS  R30,@0+(@1)+1
                 	ANDI R30,HIGH(@2)
                 	STS  @0+(@1)+1,R30
                 	.ENDM
                 
                 	.MACRO __ANDD1N
                 	ANDI R30,LOW(@0)
                 	ANDI R31,HIGH(@0)
                 	ANDI R22,BYTE3(@0)
                 	ANDI R23,BYTE4(@0)
                 	.ENDM
                 
                 	.MACRO __ANDD2N
                 	ANDI R26,LOW(@0)
                 	ANDI R27,HIGH(@0)
                 	ANDI R24,BYTE3(@0)
                 	ANDI R25,BYTE4(@0)
                 	.ENDM
                 
                 	.MACRO __ORBMNN
                 	LDS  R30,@0+(@1)
                 	ORI  R30,LOW(@2)
                 	STS  @0+(@1),R30
                 	.ENDM
                 
                 	.MACRO __ORWMNN
                 	LDS  R30,@0+(@1)
                 	ORI  R30,LOW(@2)
                 	STS  @0+(@1),R30
                 	LDS  R30,@0+(@1)+1
                 	ORI  R30,HIGH(@2)
                 	STS  @0+(@1)+1,R30
                 	.ENDM
                 
                 	.MACRO __ORD1N
                 	ORI  R30,LOW(@0)
                 	ORI  R31,HIGH(@0)
                 	ORI  R22,BYTE3(@0)
                 	ORI  R23,BYTE4(@0)
                 	.ENDM
                 
                 	.MACRO __ORD2N
                 	ORI  R26,LOW(@0)
                 	ORI  R27,HIGH(@0)
                 	ORI  R24,BYTE3(@0)
                 	ORI  R25,BYTE4(@0)
                 	.ENDM
                 
                 	.MACRO __DELAY_USB
                 	LDI  R24,LOW(@0)
                 __DELAY_USB_LOOP:
                 	DEC  R24
                 	BRNE __DELAY_USB_LOOP
                 	.ENDM
                 
                 	.MACRO __DELAY_USW
                 	LDI  R24,LOW(@0)
                 	LDI  R25,HIGH(@0)
                 __DELAY_USW_LOOP:
                 	SBIW R24,1
                 	BRNE __DELAY_USW_LOOP
                 	.ENDM
                 
                 	.MACRO __GETD1S
                 	LDD  R30,Y+@0
                 	LDD  R31,Y+@0+1
                 	LDD  R22,Y+@0+2
                 	LDD  R23,Y+@0+3
                 	.ENDM
                 
                 	.MACRO __GETD2S
                 	LDD  R26,Y+@0
                 	LDD  R27,Y+@0+1
                 	LDD  R24,Y+@0+2
                 	LDD  R25,Y+@0+3
                 	.ENDM
                 
                 	.MACRO __PUTD1S
                 	STD  Y+@0,R30
                 	STD  Y+@0+1,R31
                 	STD  Y+@0+2,R22
                 	STD  Y+@0+3,R23
                 	.ENDM
                 
                 	.MACRO __PUTD2S
                 	STD  Y+@0,R26
                 	STD  Y+@0+1,R27
                 	STD  Y+@0+2,R24
                 	STD  Y+@0+3,R25
                 	.ENDM
                 
                 	.MACRO __PUTDZ2
                 	STD  Z+@0,R26
                 	STD  Z+@0+1,R27
                 	STD  Z+@0+2,R24
                 	STD  Z+@0+3,R25
                 	.ENDM
                 
                 	.MACRO __CLRD1S
                 	STD  Y+@0,R30
                 	STD  Y+@0+1,R30
                 	STD  Y+@0+2,R30
                 	STD  Y+@0+3,R30
                 	.ENDM
                 
                 	.MACRO __POINTB1MN
                 	LDI  R30,LOW(@0+(@1))
                 	.ENDM
                 
                 	.MACRO __POINTW1MN
                 	LDI  R30,LOW(@0+(@1))
                 	LDI  R31,HIGH(@0+(@1))
                 	.ENDM
                 
                 	.MACRO __POINTD1M
                 	LDI  R30,LOW(@0)
                 	LDI  R31,HIGH(@0)
                 	LDI  R22,BYTE3(@0)
                 	LDI  R23,BYTE4(@0)
                 	.ENDM
                 
                 	.MACRO __POINTW1FN
                 	LDI  R30,LOW(2*@0+(@1))
                 	LDI  R31,HIGH(2*@0+(@1))
                 	.ENDM
                 
                 	.MACRO __POINTD1FN
                 	LDI  R30,LOW(2*@0+(@1))
                 	LDI  R31,HIGH(2*@0+(@1))
                 	LDI  R22,BYTE3(2*@0+(@1))
                 	LDI  R23,BYTE4(2*@0+(@1))
                 	.ENDM
                 
                 	.MACRO __POINTB2MN
                 	LDI  R26,LOW(@0+(@1))
                 	.ENDM
                 
                 	.MACRO __POINTW2MN
                 	LDI  R26,LOW(@0+(@1))
                 	LDI  R27,HIGH(@0+(@1))
                 	.ENDM
                 
                 	.MACRO __POINTBRM
                 	LDI  R@0,LOW(@1)
                 	.ENDM
                 
                 	.MACRO __POINTWRM
                 	LDI  R@0,LOW(@2)
                 	LDI  R@1,HIGH(@2)
                 	.ENDM
                 
                 	.MACRO __POINTBRMN
                 	LDI  R@0,LOW(@1+(@2))
                 	.ENDM
                 
                 	.MACRO __POINTWRMN
                 	LDI  R@0,LOW(@2+(@3))
                 	LDI  R@1,HIGH(@2+(@3))
                 	.ENDM
                 
                 	.MACRO __POINTWRFN
                 	LDI  R@0,LOW(@2*2+(@3))
                 	LDI  R@1,HIGH(@2*2+(@3))
                 	.ENDM
                 
                 	.MACRO __GETD1N
                 	LDI  R30,LOW(@0)
                 	LDI  R31,HIGH(@0)
                 	LDI  R22,BYTE3(@0)
                 	LDI  R23,BYTE4(@0)
                 	.ENDM
                 
                 	.MACRO __GETD2N
                 	LDI  R26,LOW(@0)
                 	LDI  R27,HIGH(@0)
                 	LDI  R24,BYTE3(@0)
                 	LDI  R25,BYTE4(@0)
                 	.ENDM
                 
                 	.MACRO __GETB1MN
                 	LDS  R30,@0+(@1)
                 	.ENDM
                 
                 	.MACRO __GETB1HMN
                 	LDS  R31,@0+(@1)
                 	.ENDM
                 
                 	.MACRO __GETW1MN
                 	LDS  R30,@0+(@1)
                 	LDS  R31,@0+(@1)+1
                 	.ENDM
                 
                 	.MACRO __GETD1MN
                 	LDS  R30,@0+(@1)
                 	LDS  R31,@0+(@1)+1
                 	LDS  R22,@0+(@1)+2
                 	LDS  R23,@0+(@1)+3
                 	.ENDM
                 
                 	.MACRO __GETBRMN
                 	LDS  R@0,@1+(@2)
                 	.ENDM
                 
                 	.MACRO __GETWRMN
                 	LDS  R@0,@2+(@3)
                 	LDS  R@1,@2+(@3)+1
                 	.ENDM
                 
                 	.MACRO __GETWRZ
                 	LDD  R@0,Z+@2
                 	LDD  R@1,Z+@2+1
                 	.ENDM
                 
                 	.MACRO __GETD2Z
                 	LDD  R26,Z+@0
                 	LDD  R27,Z+@0+1
                 	LDD  R24,Z+@0+2
                 	LDD  R25,Z+@0+3
                 	.ENDM
                 
                 	.MACRO __GETB2MN
                 	LDS  R26,@0+(@1)
                 	.ENDM
                 
                 	.MACRO __GETW2MN
                 	LDS  R26,@0+(@1)
                 	LDS  R27,@0+(@1)+1
                 	.ENDM
                 
                 	.MACRO __GETD2MN
                 	LDS  R26,@0+(@1)
                 	LDS  R27,@0+(@1)+1
                 	LDS  R24,@0+(@1)+2
                 	LDS  R25,@0+(@1)+3
                 	.ENDM
                 
                 	.MACRO __PUTB1MN
                 	STS  @0+(@1),R30
                 	.ENDM
                 
                 	.MACRO __PUTW1MN
                 	STS  @0+(@1),R30
                 	STS  @0+(@1)+1,R31
                 	.ENDM
                 
                 	.MACRO __PUTD1MN
                 	STS  @0+(@1),R30
                 	STS  @0+(@1)+1,R31
                 	STS  @0+(@1)+2,R22
                 	STS  @0+(@1)+3,R23
                 	.ENDM
                 
                 	.MACRO __PUTB1EN
                 	LDI  R26,LOW(@0+(@1))
                 	LDI  R27,HIGH(@0+(@1))
                 	CALL __EEPROMWRB
                 	.ENDM
                 
                 	.MACRO __PUTW1EN
                 	LDI  R26,LOW(@0+(@1))
                 	LDI  R27,HIGH(@0+(@1))
                 	CALL __EEPROMWRW
                 	.ENDM
                 
                 	.MACRO __PUTD1EN
                 	LDI  R26,LOW(@0+(@1))
                 	LDI  R27,HIGH(@0+(@1))
                 	CALL __EEPROMWRD
                 	.ENDM
                 
                 	.MACRO __PUTBR0MN
                 	STS  @0+(@1),R0
                 	.ENDM
                 
                 	.MACRO __PUTBMRN
                 	STS  @0+(@1),R@2
                 	.ENDM
                 
                 	.MACRO __PUTWMRN
                 	STS  @0+(@1),R@2
                 	STS  @0+(@1)+1,R@3
                 	.ENDM
                 
                 	.MACRO __PUTBZR
                 	STD  Z+@1,R@0
                 	.ENDM
                 
                 	.MACRO __PUTWZR
                 	STD  Z+@2,R@0
                 	STD  Z+@2+1,R@1
                 	.ENDM
                 
                 	.MACRO __GETW1R
                 	MOV  R30,R@0
                 	MOV  R31,R@1
                 	.ENDM
                 
                 	.MACRO __GETW2R
                 	MOV  R26,R@0
                 	MOV  R27,R@1
                 	.ENDM
                 
                 	.MACRO __GETWRN
                 	LDI  R@0,LOW(@2)
                 	LDI  R@1,HIGH(@2)
                 	.ENDM
                 
                 	.MACRO __PUTW1R
                 	MOV  R@0,R30
                 	MOV  R@1,R31
                 	.ENDM
                 
                 	.MACRO __PUTW2R
                 	MOV  R@0,R26
                 	MOV  R@1,R27
                 	.ENDM
                 
                 	.MACRO __ADDWRN
                 	SUBI R@0,LOW(-@2)
                 	SBCI R@1,HIGH(-@2)
                 	.ENDM
                 
                 	.MACRO __ADDWRR
                 	ADD  R@0,R@2
                 	ADC  R@1,R@3
                 	.ENDM
                 
                 	.MACRO __SUBWRN
                 	SUBI R@0,LOW(@2)
                 	SBCI R@1,HIGH(@2)
                 	.ENDM
                 
                 	.MACRO __SUBWRR
                 	SUB  R@0,R@2
                 	SBC  R@1,R@3
                 	.ENDM
                 
                 	.MACRO __ANDWRN
                 	ANDI R@0,LOW(@2)
                 	ANDI R@1,HIGH(@2)
                 	.ENDM
                 
                 	.MACRO __ANDWRR
                 	AND  R@0,R@2
                 	AND  R@1,R@3
                 	.ENDM
                 
                 	.MACRO __ORWRN
                 	ORI  R@0,LOW(@2)
                 	ORI  R@1,HIGH(@2)
                 	.ENDM
                 
                 	.MACRO __ORWRR
                 	OR   R@0,R@2
                 	OR   R@1,R@3
                 	.ENDM
                 
                 	.MACRO __EORWRR
                 	EOR  R@0,R@2
                 	EOR  R@1,R@3
                 	.ENDM
                 
                 	.MACRO __GETWRS
                 	LDD  R@0,Y+@2
                 	LDD  R@1,Y+@2+1
                 	.ENDM
                 
                 	.MACRO __PUTBSR
                 	STD  Y+@1,R@0
                 	.ENDM
                 
                 	.MACRO __PUTWSR
                 	STD  Y+@2,R@0
                 	STD  Y+@2+1,R@1
                 	.ENDM
                 
                 	.MACRO __MOVEWRR
                 	MOV  R@0,R@2
                 	MOV  R@1,R@3
                 	.ENDM
                 
                 	.MACRO __INWR
                 	IN   R@0,@2
                 	IN   R@1,@2+1
                 	.ENDM
                 
                 	.MACRO __OUTWR
                 	OUT  @2+1,R@1
                 	OUT  @2,R@0
                 	.ENDM
                 
                 	.MACRO __CALL1MN
                 	LDS  R30,@0+(@1)
                 	LDS  R31,@0+(@1)+1
                 	ICALL
                 	.ENDM
                 
                 	.MACRO __CALL1FN
                 	LDI  R30,LOW(2*@0+(@1))
                 	LDI  R31,HIGH(2*@0+(@1))
                 	CALL __GETW1PF
                 	ICALL
                 	.ENDM
                 
                 	.MACRO __CALL2EN
                 	LDI  R26,LOW(@0+(@1))
                 	LDI  R27,HIGH(@0+(@1))
                 	CALL __EEPROMRDW
                 	ICALL
                 	.ENDM
                 
                 	.MACRO __GETW1STACK
                 	IN   R26,SPL
                 	IN   R27,SPH
                 	ADIW R26,@0+1
                 	LD   R30,X+
                 	LD   R31,X
                 	.ENDM
                 
                 	.MACRO __GETD1STACK
                 	IN   R26,SPL
                 	IN   R27,SPH
                 	ADIW R26,@0+1
                 	LD   R30,X+
                 	LD   R31,X+
                 	LD   R22,X
                 	.ENDM
                 
                 	.MACRO __NBST
                 	BST  R@0,@1
                 	IN   R30,SREG
                 	LDI  R31,0x40
                 	EOR  R30,R31
                 	OUT  SREG,R30
                 	.ENDM
                 
                 
                 	.MACRO __PUTB1SN
                 	LDD  R26,Y+@0
                 	LDD  R27,Y+@0+1
                 	SUBI R26,LOW(-@1)
                 	SBCI R27,HIGH(-@1)
                 	ST   X,R30
                 	.ENDM
                 
                 	.MACRO __PUTW1SN
                 	LDD  R26,Y+@0
                 	LDD  R27,Y+@0+1
                 	SUBI R26,LOW(-@1)
                 	SBCI R27,HIGH(-@1)
                 	ST   X+,R30
                 	ST   X,R31
                 	.ENDM
                 
                 	.MACRO __PUTD1SN
                 	LDD  R26,Y+@0
                 	LDD  R27,Y+@0+1
                 	SUBI R26,LOW(-@1)
                 	SBCI R27,HIGH(-@1)
                 	CALL __PUTDP1
                 	.ENDM
                 
                 	.MACRO __PUTB1SNS
                 	LDD  R26,Y+@0
                 	LDD  R27,Y+@0+1
                 	ADIW R26,@1
                 	ST   X,R30
                 	.ENDM
                 
                 	.MACRO __PUTW1SNS
                 	LDD  R26,Y+@0
                 	LDD  R27,Y+@0+1
                 	ADIW R26,@1
                 	ST   X+,R30
                 	ST   X,R31
                 	.ENDM
                 
                 	.MACRO __PUTD1SNS
                 	LDD  R26,Y+@0
                 	LDD  R27,Y+@0+1
                 	ADIW R26,@1
                 	CALL __PUTDP1
                 	.ENDM
                 
                 	.MACRO __PUTB1PMN
                 	LDS  R26,@0
                 	LDS  R27,@0+1
                 	SUBI R26,LOW(-@1)
                 	SBCI R27,HIGH(-@1)
                 	ST   X,R30
                 	.ENDM
                 
                 	.MACRO __PUTW1PMN
                 	LDS  R26,@0
                 	LDS  R27,@0+1
                 	SUBI R26,LOW(-@1)
                 	SBCI R27,HIGH(-@1)
                 	ST   X+,R30
                 	ST   X,R31
                 	.ENDM
                 
                 	.MACRO __PUTD1PMN
                 	LDS  R26,@0
                 	LDS  R27,@0+1
                 	SUBI R26,LOW(-@1)
                 	SBCI R27,HIGH(-@1)
                 	CALL __PUTDP1
                 	.ENDM
                 
                 	.MACRO __PUTB1PMNS
                 	LDS  R26,@0
                 	LDS  R27,@0+1
                 	ADIW R26,@1
                 	ST   X,R30
                 	.ENDM
                 
                 	.MACRO __PUTW1PMNS
                 	LDS  R26,@0
                 	LDS  R27,@0+1
                 	ADIW R26,@1
                 	ST   X+,R30
                 	ST   X,R31
                 	.ENDM
                 
                 	.MACRO __PUTD1PMNS
                 	LDS  R26,@0
                 	LDS  R27,@0+1
                 	ADIW R26,@1
                 	CALL __PUTDP1
                 	.ENDM
                 
                 	.MACRO __PUTB1RN
                 	MOVW R26,R@0
                 	SUBI R26,LOW(-@1)
                 	SBCI R27,HIGH(-@1)
                 	ST   X,R30
                 	.ENDM
                 
                 	.MACRO __PUTW1RN
                 	MOVW R26,R@0
                 	SUBI R26,LOW(-@1)
                 	SBCI R27,HIGH(-@1)
                 	ST   X+,R30
                 	ST   X,R31
                 	.ENDM
                 
                 	.MACRO __PUTD1RN
                 	MOVW R26,R@0
                 	SUBI R26,LOW(-@1)
                 	SBCI R27,HIGH(-@1)
                 	CALL __PUTDP1
                 	.ENDM
                 
                 	.MACRO __PUTB1RNS
                 	MOVW R26,R@0
                 	ADIW R26,@1
                 	ST   X,R30
                 	.ENDM
                 
                 	.MACRO __PUTW1RNS
                 	MOVW R26,R@0
                 	ADIW R26,@1
                 	ST   X+,R30
                 	ST   X,R31
                 	.ENDM
                 
                 	.MACRO __PUTD1RNS
                 	MOVW R26,R@0
                 	ADIW R26,@1
                 	CALL __PUTDP1
                 	.ENDM
                 
                 	.MACRO __PUTB1RON
                 	MOV  R26,R@0
                 	MOV  R27,R@1
                 	SUBI R26,LOW(-@2)
                 	SBCI R27,HIGH(-@2)
                 	ST   X,R30
                 	.ENDM
                 
                 	.MACRO __PUTW1RON
                 	MOV  R26,R@0
                 	MOV  R27,R@1
                 	SUBI R26,LOW(-@2)
                 	SBCI R27,HIGH(-@2)
                 	ST   X+,R30
                 	ST   X,R31
                 	.ENDM
                 
                 	.MACRO __PUTD1RON
                 	MOV  R26,R@0
                 	MOV  R27,R@1
                 	SUBI R26,LOW(-@2)
                 	SBCI R27,HIGH(-@2)
                 	CALL __PUTDP1
                 	.ENDM
                 
                 	.MACRO __PUTB1RONS
                 	MOV  R26,R@0
                 	MOV  R27,R@1
                 	ADIW R26,@2
                 	ST   X,R30
                 	.ENDM
                 
                 	.MACRO __PUTW1RONS
                 	MOV  R26,R@0
                 	MOV  R27,R@1
                 	ADIW R26,@2
                 	ST   X+,R30
                 	ST   X,R31
                 	.ENDM
                 
                 	.MACRO __PUTD1RONS
                 	MOV  R26,R@0
                 	MOV  R27,R@1
                 	ADIW R26,@2
                 	CALL __PUTDP1
                 	.ENDM
                 
                 
                 	.MACRO __GETB1SX
                 	MOVW R30,R28
                 	SUBI R30,LOW(-@0)
                 	SBCI R31,HIGH(-@0)
                 	LD   R30,Z
                 	.ENDM
                 
                 	.MACRO __GETB1HSX
                 	MOVW R30,R28
                 	SUBI R30,LOW(-@0)
                 	SBCI R31,HIGH(-@0)
                 	LD   R31,Z
                 	.ENDM
                 
                 	.MACRO __GETW1SX
                 	MOVW R30,R28
                 	SUBI R30,LOW(-@0)
                 	SBCI R31,HIGH(-@0)
                 	LD   R0,Z+
                 	LD   R31,Z
                 	MOV  R30,R0
                 	.ENDM
                 
                 	.MACRO __GETD1SX
                 	MOVW R30,R28
                 	SUBI R30,LOW(-@0)
                 	SBCI R31,HIGH(-@0)
                 	LD   R0,Z+
                 	LD   R1,Z+
                 	LD   R22,Z+
                 	LD   R23,Z
                 	MOVW R30,R0
                 	.ENDM
                 
                 	.MACRO __GETB2SX
                 	MOVW R26,R28
                 	SUBI R26,LOW(-@0)
                 	SBCI R27,HIGH(-@0)
                 	LD   R26,X
                 	.ENDM
                 
                 	.MACRO __GETW2SX
                 	MOVW R26,R28
                 	SUBI R26,LOW(-@0)
                 	SBCI R27,HIGH(-@0)
                 	LD   R0,X+
                 	LD   R27,X
                 	MOV  R26,R0
                 	.ENDM
                 
                 	.MACRO __GETD2SX
                 	MOVW R26,R28
                 	SUBI R26,LOW(-@0)
                 	SBCI R27,HIGH(-@0)
                 	LD   R0,X+
                 	LD   R1,X+
                 	LD   R24,X+
                 	LD   R25,X
                 	MOVW R26,R0
                 	.ENDM
                 
                 	.MACRO __GETBRSX
                 	MOVW R30,R28
                 	SUBI R30,LOW(-@1)
                 	SBCI R31,HIGH(-@1)
                 	LD   R@0,Z
                 	.ENDM
                 
                 	.MACRO __GETWRSX
                 	MOVW R30,R28
                 	SUBI R30,LOW(-@2)
                 	SBCI R31,HIGH(-@2)
                 	LD   R@0,Z+
                 	LD   R@1,Z
                 	.ENDM
                 
                 	.MACRO __GETBRSX2
                 	MOVW R26,R28
                 	SUBI R26,LOW(-@1)
                 	SBCI R27,HIGH(-@1)
                 	LD   R@0,X
                 	.ENDM
                 
                 	.MACRO __GETWRSX2
                 	MOVW R26,R28
                 	SUBI R26,LOW(-@2)
                 	SBCI R27,HIGH(-@2)
                 	LD   R@0,X+
                 	LD   R@1,X
                 	.ENDM
                 
                 	.MACRO __LSLW8SX
                 	MOVW R30,R28
                 	SUBI R30,LOW(-@0)
                 	SBCI R31,HIGH(-@0)
                 	LD   R31,Z
                 	CLR  R30
                 	.ENDM
                 
                 	.MACRO __PUTB1SX
                 	MOVW R26,R28
                 	SUBI R26,LOW(-@0)
                 	SBCI R27,HIGH(-@0)
                 	ST   X,R30
                 	.ENDM
                 
                 	.MACRO __PUTW1SX
                 	MOVW R26,R28
                 	SUBI R26,LOW(-@0)
                 	SBCI R27,HIGH(-@0)
                 	ST   X+,R30
                 	ST   X,R31
                 	.ENDM
                 
                 	.MACRO __PUTD1SX
                 	MOVW R26,R28
                 	SUBI R26,LOW(-@0)
                 	SBCI R27,HIGH(-@0)
                 	ST   X+,R30
                 	ST   X+,R31
                 	ST   X+,R22
                 	ST   X,R23
                 	.ENDM
                 
                 	.MACRO __CLRW1SX
                 	MOVW R26,R28
                 	SUBI R26,LOW(-@0)
                 	SBCI R27,HIGH(-@0)
                 	ST   X+,R30
                 	ST   X,R30
                 	.ENDM
                 
                 	.MACRO __CLRD1SX
                 	MOVW R26,R28
                 	SUBI R26,LOW(-@0)
                 	SBCI R27,HIGH(-@0)
                 	ST   X+,R30
                 	ST   X+,R30
                 	ST   X+,R30
                 	ST   X,R30
                 	.ENDM
                 
                 	.MACRO __PUTB2SX
                 	MOVW R30,R28
                 	SUBI R30,LOW(-@0)
                 	SBCI R31,HIGH(-@0)
                 	ST   Z,R26
                 	.ENDM
                 
                 	.MACRO __PUTW2SX
                 	MOVW R30,R28
                 	SUBI R30,LOW(-@0)
                 	SBCI R31,HIGH(-@0)
                 	ST   Z+,R26
                 	ST   Z,R27
                 	.ENDM
                 
                 	.MACRO __PUTD2SX
                 	MOVW R30,R28
                 	SUBI R30,LOW(-@0)
                 	SBCI R31,HIGH(-@0)
                 	ST   Z+,R26
                 	ST   Z+,R27
                 	ST   Z+,R24
                 	ST   Z,R25
                 	.ENDM
                 
                 	.MACRO __PUTBSRX
                 	MOVW R30,R28
                 	SUBI R30,LOW(-@1)
                 	SBCI R31,HIGH(-@1)
                 	ST   Z,R@0
                 	.ENDM
                 
                 	.MACRO __PUTWSRX
                 	MOVW R30,R28
                 	SUBI R30,LOW(-@2)
                 	SBCI R31,HIGH(-@2)
                 	ST   Z+,R@0
                 	ST   Z,R@1
                 	.ENDM
                 
                 	.MACRO __PUTB1SNX
                 	MOVW R26,R28
                 	SUBI R26,LOW(-@0)
                 	SBCI R27,HIGH(-@0)
                 	LD   R0,X+
                 	LD   R27,X
                 	MOV  R26,R0
                 	SUBI R26,LOW(-@1)
                 	SBCI R27,HIGH(-@1)
                 	ST   X,R30
                 	.ENDM
                 
                 	.MACRO __PUTW1SNX
                 	MOVW R26,R28
                 	SUBI R26,LOW(-@0)
                 	SBCI R27,HIGH(-@0)
                 	LD   R0,X+
                 	LD   R27,X
                 	MOV  R26,R0
                 	SUBI R26,LOW(-@1)
                 	SBCI R27,HIGH(-@1)
                 	ST   X+,R30
                 	ST   X,R31
                 	.ENDM
                 
                 	.MACRO __PUTD1SNX
                 	MOVW R26,R28
                 	SUBI R26,LOW(-@0)
                 	SBCI R27,HIGH(-@0)
                 	LD   R0,X+
                 	LD   R27,X
                 	MOV  R26,R0
                 	SUBI R26,LOW(-@1)
                 	SBCI R27,HIGH(-@1)
                 	ST   X+,R30
                 	ST   X+,R31
                 	ST   X+,R22
                 	ST   X,R23
                 	.ENDM
                 
                 	.MACRO __MULBRR
                 	MULS R@0,R@1
                 	MOVW R30,R0
                 	.ENDM
                 
                 	.MACRO __MULBRRU
                 	MUL  R@0,R@1
                 	MOVW R30,R0
                 	.ENDM
                 
                 	.MACRO __MULBRR0
                 	MULS R@0,R@1
                 	.ENDM
                 
                 	.MACRO __MULBRRU0
                 	MUL  R@0,R@1
                 	.ENDM
                 
                 	.MACRO __MULBNWRU
                 	LDI  R26,@2
                 	MUL  R26,R@0
                 	MOVW R30,R0
                 	MUL  R26,R@1
                 	ADD  R31,R0
                 	.ENDM
                 
                 ;NAME DEFINITIONS FOR GLOBAL VARIABLES ALLOCATED TO REGISTERS
                 	.DEF _Screen=R4
                 	.DEF _Current_Screen=R6
                 	.DEF _Pointer_horiz=R8
                 	.DEF _Pointer_vert=R10
                 	.DEF _Pt=R12
                 
                 	.CSEG
                 	.ORG 0x00
                 
                 ;START OF CODE MARKER
                 __START_OF_CODE:
                 
                 ;INTERRUPT VECTORS
000000 940c 01b6 	JMP  __RESET
000002 940c 0000 	JMP  0x00
000004 940c 0000 	JMP  0x00
000006 940c 0000 	JMP  0x00
000008 940c 0000 	JMP  0x00
00000a 940c 0000 	JMP  0x00
00000c 940c 0000 	JMP  0x00
00000e 940c 0000 	JMP  0x00
000010 940c 0000 	JMP  0x00
000012 940c 0000 	JMP  0x00
000014 940c 0000 	JMP  0x00
000016 940c 0000 	JMP  0x00
000018 940c 0000 	JMP  0x00
00001a 940c 0000 	JMP  0x00
00001c 940c 0000 	JMP  0x00
00001e 940c 0000 	JMP  0x00
000020 940c 0000 	JMP  0x00
000022 940c 0000 	JMP  0x00
000024 940c 035a 	JMP  _usart0_rx_isr
000026 940c 0000 	JMP  0x00
000028 940c 03cc 	JMP  _usart0_tx_isr
00002a 940c 0000 	JMP  0x00
00002c 940c 0000 	JMP  0x00
00002e 940c 0000 	JMP  0x00
000030 940c 0000 	JMP  0x00
000032 940c 0000 	JMP  0x00
000034 940c 0000 	JMP  0x00
000036 940c 0000 	JMP  0x00
000038 940c 0000 	JMP  0x00
00003a 940c 0418 	JMP  _timer3_ovf_isr
00003c 940c 0000 	JMP  0x00
00003e 940c 0000 	JMP  0x00
000040 940c 0000 	JMP  0x00
000042 940c 0000 	JMP  0x00
000044 940c 0000 	JMP  0x00
                 
                 _tbl10_G100:
000046 2710
000047 03e8
000048 0064
000049 000a      	.DB  0x10,0x27,0xE8,0x3,0x64,0x0,0xA,0x0
00004a 0001      	.DB  0x1,0x0
                 _tbl16_G100:
00004b 1000
00004c 0100
00004d 0010
00004e 0001      	.DB  0x0,0x10,0x0,0x1,0x10,0x0,0x1,0x0
                 
                 ;REGISTER BIT VARIABLES INITIALIZATION
                 __REG_BIT_VARS:
00004f 0000      	.DW  0x0000
                 
                 _0x3:
000050 6149
000051 616d
000052 6f42
000053 6569      	.DB  0x49,0x61,0x6D,0x61,0x42,0x6F,0x69,0x65
                 _0x4:
000054 05c9      	.DB  LOW(_dataArr),HIGH(_dataArr)
                 _0x5:
000055 3030
000056 3030
000057 3030
000058 3030      	.DB  0x30,0x30,0x30,0x30,0x30,0x30,0x30,0x30
                 _0x6:
000059 3030
00005a 3030
00005b 3030
00005c 3030      	.DB  0x30,0x30,0x30,0x30,0x30,0x30,0x30,0x30
                 _0x11D:
00005d 0001
00005e 0000
00005f 0000
000060 0000      	.DB  0x1,0x0,0x0,0x0,0x0,0x0,0x0,0x0
                 _0x0:
000061 303c
000062 3130
000063 003e
000064 303c      	.DB  0x3C,0x30,0x30,0x31,0x3E,0x0,0x3C,0x30
000065 3230
000066 003e
000067 303c
000068 3330      	.DB  0x30,0x32,0x3E,0x0,0x3C,0x30,0x30,0x33
000069 003e
00006a 303c
00006b 3031
00006c 003e      	.DB  0x3E,0x0,0x3C,0x30,0x31,0x30,0x3E,0x0
00006d 303c
00006e 3131
00006f 003e
000070 303c      	.DB  0x3C,0x30,0x31,0x31,0x3E,0x0,0x3C,0x30
000071 3431
000072 252d
000073 3430
000074 3e64      	.DB  0x31,0x34,0x2D,0x25,0x30,0x34,0x64,0x3E
000075 3c00
000076 3130
000077 2d35
000078 3025      	.DB  0x0,0x3C,0x30,0x31,0x35,0x2D,0x25,0x30
000079 6434
00007a 003e
00007b 0020
00007c 005e      	.DB  0x34,0x64,0x3E,0x0,0x20,0x0,0x5E,0x0
00007d 3025
00007e 6433
00007f 2500
000080 3230      	.DB  0x25,0x30,0x33,0x64,0x0,0x25,0x30,0x32
000081 0064
000082 3025
000083 6432
000084 253a      	.DB  0x64,0x0,0x25,0x30,0x32,0x64,0x3A,0x25
000085 3230
000086 3a64
000087 3025
000088 6432      	.DB  0x30,0x32,0x64,0x3A,0x25,0x30,0x32,0x64
000089 2500
00008a 3230
00008b 2f64
00008c 3025      	.DB  0x0,0x25,0x30,0x32,0x64,0x2F,0x25,0x30
00008d 6432
00008e 252f
00008f 3230
000090 0064      	.DB  0x32,0x64,0x2F,0x25,0x30,0x32,0x64,0x0
000091 6f56
000092 746c
000093 6761
000094 2065      	.DB  0x56,0x6F,0x6C,0x74,0x61,0x67,0x65,0x20
000095 6573
000096 2074
000097 6f74
000098 003a      	.DB  0x73,0x65,0x74,0x20,0x74,0x6F,0x3A,0x0
000099 0056
00009a 303c
00009b 3431
00009c 002d      	.DB  0x56,0x0,0x3C,0x30,0x31,0x34,0x2D,0x0
00009d 6553
00009e 2074
00009f 6176
0000a0 756c      	.DB  0x53,0x65,0x74,0x20,0x76,0x61,0x6C,0x75
0000a1 2065
0000a2 6873
0000a3 756f
0000a4 646c      	.DB  0x65,0x20,0x73,0x68,0x6F,0x75,0x6C,0x64
0000a5 6200
0000a6 2065
0000a7 6562
0000a8 7774      	.DB  0x0,0x62,0x65,0x20,0x62,0x65,0x74,0x77
0000a9 6565
0000aa 206e
0000ab 3131
0000ac 2d30      	.DB  0x65,0x65,0x6E,0x20,0x31,0x31,0x30,0x2D
0000ad 3100
0000ae 3533
0000af 7620
0000b0 6c6f      	.DB  0x0,0x31,0x33,0x35,0x20,0x76,0x6F,0x6C
0000b1 7374
0000b2 4300
0000b3 7275
0000b4 6572      	.DB  0x74,0x73,0x0,0x43,0x75,0x72,0x72,0x65
0000b5 746e
0000b6 7320
0000b7 7465
0000b8 7420      	.DB  0x6E,0x74,0x20,0x73,0x65,0x74,0x20,0x74
0000b9 3a6f
0000ba 4100
0000bb 3c00
0000bc 3130      	.DB  0x6F,0x3A,0x0,0x41,0x0,0x3C,0x30,0x31
0000bd 2d35
0000be 6200
0000bf 2065
0000c0 6562      	.DB  0x35,0x2D,0x0,0x62,0x65,0x20,0x62,0x65
0000c1 7774
0000c2 6565
0000c3 206e
0000c4 3031      	.DB  0x74,0x77,0x65,0x65,0x6E,0x20,0x31,0x30
0000c5 002d
0000c6 3032
0000c7 6120
0000c8 706d      	.DB  0x2D,0x0,0x32,0x30,0x20,0x61,0x6D,0x70
0000c9 0073
0000ca 6954
0000cb 656d
0000cc 5320      	.DB  0x73,0x0,0x54,0x69,0x6D,0x65,0x20,0x53
0000cd 7465
0000ce 5420
0000cf 3a6f
0000d0 4400      	.DB  0x65,0x74,0x20,0x54,0x6F,0x3A,0x0,0x44
0000d1 7461
0000d2 2065
0000d3 6553
0000d4 2074      	.DB  0x61,0x74,0x65,0x20,0x53,0x65,0x74,0x20
0000d5 6f54
0000d6 2000
0000d7 4820
0000d8 4749      	.DB  0x54,0x6F,0x0,0x20,0x20,0x48,0x49,0x47
0000d9 2048
0000da 4157
0000db 5454
0000dc 4741      	.DB  0x48,0x20,0x57,0x41,0x54,0x54,0x41,0x47
0000dd 2045
0000de 0020
0000df 4220
0000e0 5441      	.DB  0x45,0x20,0x20,0x0,0x20,0x42,0x41,0x54
0000e1 4554
0000e2 5952
0000e3 4320
0000e4 4148      	.DB  0x54,0x45,0x52,0x59,0x20,0x43,0x48,0x41
0000e5 4752
0000e6 5245
0000e7 3c00
0000e8 3130      	.DB  0x52,0x47,0x45,0x52,0x0,0x3C,0x30,0x31
0000e9 2d34
0000ea 3130
0000eb 3031
0000ec 3c00      	.DB  0x34,0x2D,0x30,0x31,0x31,0x30,0x0,0x3C
0000ed 3130
0000ee 2d35
0000ef 3030
0000f0 3031      	.DB  0x30,0x31,0x35,0x2D,0x30,0x30,0x31,0x30
0000f1 5300
0000f2 7465
0000f3 5020
0000f4 7261      	.DB  0x0,0x53,0x65,0x74,0x20,0x50,0x61,0x72
0000f5 6d61
0000f6 7465
0000f7 7265
0000f8 0073      	.DB  0x61,0x6D,0x65,0x74,0x65,0x72,0x73,0x0
0000f9 6553
0000fa 2074
0000fb 6954
0000fc 656d      	.DB  0x53,0x65,0x74,0x20,0x54,0x69,0x6D,0x65
0000fd 442f
0000fe 7461
0000ff 0065
000100 6944      	.DB  0x2F,0x44,0x61,0x74,0x65,0x0,0x44,0x69
000101 7073
000102 616c
000103 2079
000104 6954      	.DB  0x73,0x70,0x6C,0x61,0x79,0x20,0x54,0x69
000105 656d
000106 5000
000107 5241
000108 4d41      	.DB  0x6D,0x65,0x0,0x50,0x41,0x52,0x41,0x4D
000109 5445
00010a 5245
00010b 0053
00010c 6f56      	.DB  0x45,0x54,0x45,0x52,0x53,0x0,0x56,0x6F
00010d 746c
00010e 6761
00010f 2065
000110 5628      	.DB  0x6C,0x74,0x61,0x67,0x65,0x20,0x28,0x56
000111 4c4f
000112 5354
000113 0029
000114 7543      	.DB  0x4F,0x4C,0x54,0x53,0x29,0x0,0x43,0x75
000115 7272
000116 6e65
000117 2074
000118 4128      	.DB  0x72,0x72,0x65,0x6E,0x74,0x20,0x28,0x41
000119 504d
00011a 2953
00011b 5300
00011c 7465      	.DB  0x4D,0x50,0x53,0x29,0x0,0x53,0x65,0x74
00011d 7620
00011e 6c6f
00011f 6174
000120 6567      	.DB  0x20,0x76,0x6F,0x6C,0x74,0x61,0x67,0x65
000121 003a
000122 6553
000123 2074
000124 7563      	.DB  0x3A,0x0,0x53,0x65,0x74,0x20,0x63,0x75
000125 7272
000126 6e65
000127 3a74
000128 5300      	.DB  0x72,0x72,0x65,0x6E,0x74,0x3A,0x0,0x53
000129 7465
00012a 5420
00012b 6d69
00012c 0065      	.DB  0x65,0x74,0x20,0x54,0x69,0x6D,0x65,0x0
00012d 6553
00012e 2074
00012f 6144
000130 6574      	.DB  0x53,0x65,0x74,0x20,0x44,0x61,0x74,0x65
000131 5400
000132 4d49
000133 2045
000134 4e41      	.DB  0x0,0x54,0x49,0x4D,0x45,0x20,0x41,0x4E
000135 2044
000136 4144
000137 4554
000138 5400      	.DB  0x44,0x20,0x44,0x41,0x54,0x45,0x0,0x54
000139 4d49
00013a 0045
00013b 6954
00013c 656d      	.DB  0x49,0x4D,0x45,0x0,0x54,0x69,0x6D,0x65
00013d 003a
00013e 6144
00013f 6574
000140 003a      	.DB  0x3A,0x0,0x44,0x61,0x74,0x65,0x3A,0x0
000141 5653
000142 003a
000143 4253
000144 3a43      	.DB  0x53,0x56,0x3A,0x0,0x53,0x42,0x43,0x3A
000145 4100
000146 3a56
000147 4100
000148 4342      	.DB  0x0,0x41,0x56,0x3A,0x0,0x41,0x42,0x43
000149 003a
00014a 4941
00014b 3a56
00014c 4100      	.DB  0x3A,0x0,0x41,0x49,0x56,0x3A,0x0,0x41
00014d 434f
00014e 003a
00014f 6146
000150 6c75      	.DB  0x4F,0x43,0x3A,0x0,0x46,0x61,0x75,0x6C
000151 2074
000152 4449
000153 003a
000154 3030      	.DB  0x74,0x20,0x49,0x44,0x3A,0x0,0x30,0x30
000155 0030
000156 3025
000157 6432
000158 252e      	.DB  0x30,0x0,0x25,0x30,0x32,0x64,0x2E,0x25
000159 3130
00015a 0064
00015b 614d
00015c 6863      	.DB  0x30,0x31,0x64,0x0,0x4D,0x61,0x63,0x68
00015d 6e69
00015e 2065
00015f 203a
000160 4e4f      	.DB  0x69,0x6E,0x65,0x20,0x3A,0x20,0x4F,0x4E
000161 0020
000162 614d
000163 6863
000164 6e69      	.DB  0x20,0x0,0x4D,0x61,0x63,0x68,0x69,0x6E
000165 2065
000166 203a
000167 464f
000168 0046      	.DB  0x65,0x20,0x3A,0x20,0x4F,0x46,0x46,0x0
                 _0x2020060:
C:\Users\anwar\OneDrive\Desktop\PDC\PDC battery charger\HMI v2.22\List\ver2.asm(1198): warning: .cseg .db misalignment - padding zero byte
000169 0001      	.DB  0x1
                 _0x2020000:
00016a 4e2d
00016b 4e41
00016c 4900
00016d 464e      	.DB  0x2D,0x4E,0x41,0x4E,0x0,0x49,0x4E,0x46
C:\Users\anwar\OneDrive\Desktop\PDC\PDC battery charger\HMI v2.22\List\ver2.asm(1201): warning: .cseg .db misalignment - padding zero byte
00016e 0000      	.DB  0x0
                 _0x2080003:
00016f c080      	.DB  0x80,0xC0
                 
                 __GLOBAL_INI_TBL:
000170 0001      	.DW  0x01
000171 0002      	.DW  0x02
000172 009e      	.DW  __REG_BIT_VARS*2
                 
000173 0008      	.DW  0x08
000174 05c9      	.DW  _dataArr
000175 00a0      	.DW  _0x3*2
                 
000176 0008      	.DW  0x08
000177 05d2      	.DW  _fltArray
000178 00b2      	.DW  _0x6*2
                 
000179 0001      	.DW  0x01
00017a 0500      	.DW  _0xD
00017b 00c7      	.DW  _0x0*2+5
                 
00017c 0001      	.DW  0x01
00017d 0501      	.DW  _0xE
00017e 00c7      	.DW  _0x0*2+5
                 
00017f 0010      	.DW  0x10
000180 0502      	.DW  _0x7C
000181 0122      	.DW  _0x0*2+96
                 
000182 0010      	.DW  0x10
000183 0512      	.DW  _0x95
000184 0165      	.DW  _0x0*2+163
                 
000185 000d      	.DW  0x0D
000186 0522      	.DW  _0xB2
000187 0194      	.DW  _0x0*2+210
                 
000188 000c      	.DW  0x0C
000189 052f      	.DW  _0xCE
00018a 01a1      	.DW  _0x0*2+223
                 
00018b 0011      	.DW  0x11
00018c 053b      	.DW  _0xD5
00018d 01ad      	.DW  _0x0*2+235
                 
00018e 0011      	.DW  0x11
00018f 054c      	.DW  _0xD5+17
000190 01be      	.DW  _0x0*2+252
                 
000191 0006      	.DW  0x06
000192 055d      	.DW  _0xE5
000193 0276      	.DW  _0x0*2+436
                 
000194 0006      	.DW  0x06
000195 0563      	.DW  _0xE5+6
000196 027c      	.DW  _0x0*2+442
                 
000197 000a      	.DW  0x0A
000198 0569      	.DW  _0xF9
000199 029e      	.DW  _0x0*2+476
                 
00019a 0006      	.DW  0x06
00019b 0573      	.DW  _0xF9+10
00019c 0276      	.DW  _0x0*2+436
                 
00019d 0006      	.DW  0x06
00019e 0579      	.DW  _0xF9+16
00019f 027c      	.DW  _0x0*2+442
                 
0001a0 0004      	.DW  0x04
0001a1 057f      	.DW  _0xF9+22
0001a2 02a8      	.DW  _0x0*2+486
                 
0001a3 0004      	.DW  0x04
0001a4 0583      	.DW  _0xF9+26
0001a5 02a8      	.DW  _0x0*2+486
                 
0001a6 0004      	.DW  0x04
0001a7 0587      	.DW  _0xF9+30
0001a8 02a8      	.DW  _0x0*2+486
                 
0001a9 0004      	.DW  0x04
0001aa 058b      	.DW  _0xF9+34
0001ab 02a8      	.DW  _0x0*2+486
                 
0001ac 0008      	.DW  0x08
0001ad 0004      	.DW  0x04
0001ae 00ba      	.DW  _0x11D*2
                 
0001af 0001      	.DW  0x01
0001b0 0682      	.DW  __seed_G101
0001b1 02d2      	.DW  _0x2020060*2
                 
0001b2 0002      	.DW  0x02
0001b3 0686      	.DW  __base_y_G104
0001b4 02de      	.DW  _0x2080003*2
                 
                 _0xFFFFFFFF:
0001b5 0000      	.DW  0
                 
                 __RESET:
0001b6 94f8      	CLI
0001b7 27ee      	CLR  R30
0001b8 bbec      	OUT  EECR,R30
                 
                 ;INTERRUPT VECTORS ARE PLACED
                 ;AT THE START OF FLASH
0001b9 e0f1      	LDI  R31,1
0001ba bff5      	OUT  MCUCR,R31
0001bb bfe5      	OUT  MCUCR,R30
0001bc 93e0 006c 	STS  XMCRB,R30
                 
                 ;DISABLE WATCHDOG
0001be e1f8      	LDI  R31,0x18
0001bf bdf1      	OUT  WDTCR,R31
0001c0 bde1      	OUT  WDTCR,R30
                 
                 ;CLEAR R2-R14
0001c1 e08d      	LDI  R24,(14-2)+1
0001c2 e0a2      	LDI  R26,2
0001c3 27bb      	CLR  R27
                 __CLEAR_REG:
0001c4 93ed      	ST   X+,R30
0001c5 958a      	DEC  R24
0001c6 f7e9      	BRNE __CLEAR_REG
                 
                 ;CLEAR SRAM
0001c7 e080      	LDI  R24,LOW(__CLEAR_SRAM_SIZE)
0001c8 e190      	LDI  R25,HIGH(__CLEAR_SRAM_SIZE)
0001c9 e0a0      	LDI  R26,LOW(__SRAM_START)
0001ca e0b1      	LDI  R27,HIGH(__SRAM_START)
                 __CLEAR_SRAM:
0001cb 93ed      	ST   X+,R30
0001cc 9701      	SBIW R24,1
0001cd f7e9      	BRNE __CLEAR_SRAM
                 
                 ;GLOBAL VARIABLES INITIALIZATION
0001ce eee0      	LDI  R30,LOW(__GLOBAL_INI_TBL*2)
0001cf e0f2      	LDI  R31,HIGH(__GLOBAL_INI_TBL*2)
                 __GLOBAL_INI_NEXT:
0001d0 9185      	LPM  R24,Z+
0001d1 9195      	LPM  R25,Z+
0001d2 9700      	SBIW R24,0
0001d3 f061      	BREQ __GLOBAL_INI_END
0001d4 91a5      	LPM  R26,Z+
0001d5 91b5      	LPM  R27,Z+
0001d6 9005      	LPM  R0,Z+
0001d7 9015      	LPM  R1,Z+
0001d8 01bf      	MOVW R22,R30
0001d9 01f0      	MOVW R30,R0
                 __GLOBAL_INI_LOOP:
0001da 9005      	LPM  R0,Z+
0001db 920d      	ST   X+,R0
0001dc 9701      	SBIW R24,1
0001dd f7e1      	BRNE __GLOBAL_INI_LOOP
0001de 01fb      	MOVW R30,R22
0001df cff0      	RJMP __GLOBAL_INI_NEXT
                 __GLOBAL_INI_END:
                 
0001e0 bf8b      	OUT  RAMPZ,R24
                 
                 ;HARDWARE STACK POINTER INITIALIZATION
0001e1 efef      	LDI  R30,LOW(__SRAM_END-__HEAP_SIZE)
0001e2 bfed      	OUT  SPL,R30
0001e3 e1e0      	LDI  R30,HIGH(__SRAM_END-__HEAP_SIZE)
0001e4 bfee      	OUT  SPH,R30
                 
                 ;DATA STACK POINTER INITIALIZATION
0001e5 e0c0      	LDI  R28,LOW(__SRAM_START+__DSTACK_SIZE)
0001e6 e0d5      	LDI  R29,HIGH(__SRAM_START+__DSTACK_SIZE)
                 
0001e7 940c 09b0 	JMP  _main
                 
                 	.ESEG
                 	.ORG 0
                 
                 	.DSEG
                 	.ORG 0x500
                 
                 	.CSEG
                 ;/*
                 ;PORTE.5 == KEYPAD 2
                 ;PORTE.7 == KEYPAD 1
                 ;PORTD.2 == KEYPAD 4
                 ;PORTB.3 == KEYPAD 3
                 ;*/
                 ;
                 ;
                 ;
                 ;#include <mega128.h>
                 	#ifndef __SLEEP_DEFINED__
                 	#define __SLEEP_DEFINED__
                 	.EQU __se_bit=0x20
                 	.EQU __sm_mask=0x1C
                 	.EQU __sm_powerdown=0x10
                 	.EQU __sm_powersave=0x18
                 	.EQU __sm_standby=0x14
                 	.EQU __sm_ext_standby=0x1C
                 	.EQU __sm_adc_noise_red=0x08
                 	.SET power_ctrl_reg=mcucr
                 	#endif
                 ;#include <stdint.h>
                 ;#include <delay.h>
                 ;#include <stdio.h>
                 ;#include <stdlib.h>
                 ;#include <Math.h>
                 ;//#include <twix.h>
                 ;#include <String.h>
                 ;#include <io.h>
                 ;#include "commands.c"
                 ;/*
                 ; * commands.c
                 ; *
                 ; *  Created on: Jan 10, 2020
                 ; *      Author: Mr.Yash
                 ; */
                 ;
                 ;//#include <Serial.h>
                 ;#include <commands.h>
                 ;#include <alcd.h>
                 ;#include <ver1.h>
                 ;//#include <variables.h>
                 ;
                 ;int Screen = 1;
                 ;int Current_Screen = 0;
                 ;int Pointer_horiz = 0, Pointer_vert = 0, Pt;
                 ;
                 ;int temp_voltage = 0;
                 ;int temp_current = 0;
                 ;long set_voltage = 0;
                 ;long set_current = 0;
                 ;//float set_current = 00.0;                        //12/2/20
                 ;static int actual_voltage = 0;
                 ;static int actual_btcurrentdp = 0;
                 ;static int actual_btcurrentip = 0;
                 ;static int actual_ipvoltage = 0;
                 ;static int actual_opcurrentdp = 0;
                 ;static int actual_opcurrentip = 0;
                 ;
                 ;int set_flag=0;
                 ;int flag = 0;
                 ;
                 ;int n=0;                    //Input function parameter in screen functions
                 ;int main_screen_trigger;  //to return to main screen
                 ;int ms_update_flag = 0;
                 ;int current_mainscreen_flag = 0;
                 ;int status = 0;
                 ;int fault_flag = 0;
                 ;int rtc_display_counter = 0;
                 ;
                 ;//flash char* txVoltCom;
                 ;//flash char* txAmpCom;
                 ;
                 ;unsigned char hour;
                 ;unsigned char minute;
                 ;unsigned char second;
                 ;unsigned char date;
                 ;unsigned char month;
                 ;unsigned char year;
                 ;char disp_time[];
                 ;char disp_date[];
                 ;unsigned char temp_hour;
                 ;unsigned char temp_minute;
                 ;unsigned char temp_second;
                 ;char disp_temp_time[];
                 ;unsigned char temp_date;
                 ;unsigned char temp_month;
                 ;unsigned char temp_year;
                 ;char disp_temp_date[];
                 ;
                 ;unsigned char dataByte;
                 ;unsigned char dataArr[] = {'I','a','m','a','B','o','i','e','\0'};
                 
                 	.DSEG
                 ;unsigned char *data_ptr = dataArr;
                 ;unsigned char rddataArr[] = {'0','0','0','0','0','0','0','0','\0'};
                 ;unsigned char *rddata_ptr;
                 ;int address;
                 ;//unsigned char addressH = 00;
                 ;//unsigned char addressL = 00;
                 ;unsigned short read_data;
                 ;unsigned char disp_eeprom_write[];
                 ;unsigned char disp_eeprom_read[];
                 ;
                 ;
                 ;
                 ;char fltArray[9] = {'0','0','0','0','0','0','0','0','\0'};
                 ;char disp_volt[3];
                 ;char disp_current[3];
                 ;char disp_set_voltage[3];
                 ;char disp_set_btcurrent[4];
                 ;char disp_actual_voltage[3];
                 ;char disp_actual_btcurrent[4];
                 ;char disp_actual_ipvoltage[3];
                 ;char disp_actual_opcurrent[4];
                 ;//char disp_fault[];
                 ;//flash char *msg;
                 ;flash char *xmitMsg;
                 ;//flash char *rec;
                 ;//flash char *rdata;
                 ;//char sdataA[20];    // Send data for SCI-A
                 ;char rdataA[20]; // Received data for SCI-A
                 ;int comStart;
                 ;
                 ;int i = 0;
                 ;
                 ;    //commands will be given a 3 digit numeric code based on the button pressed;
                 ;    //Stored values for the particular option-
                 ;
                 ;    //    000-  noOp
                 ;    //    001-  mainOn
                 ;    //    002-  mainOff
                 ;    //    003-  resetFault
                 ;    //    004-  faultDetect
                 ;    //    005-  txSetVoltage
                 ;    //    006-  txSetCurrent
                 ;    //    007-
                 ;    //    008-
                 ;    //    009-
                 ;    //    010-  read output voltage
                 ;    //    011-  read battery current
                 ;    //    012-  read input voltage
                 ;    //    013-  read output current
                 ;    //    014-  set output voltage
                 ;    //    015-  set battery current
                 ;    //    016-
                 ;    //    017-
                 ;    //    018-
                 ;    //    019-
                 ;    //    020-
                 ;    //    021-
                 ;    //    022-
                 ;    //    023-
                 ;    //    024-
                 ;    //    025-
                 ;    //    026-
                 ;    //    027-
                 ;    //    028-
                 ;    //    029-
                 ;    //    030-
                 ;    //    031-
                 ;    //    032-
                 ;    //    033-
                 ;    //    034-
                 ;    //    035-
                 ;    //    036-
                 ;    //    037-
                 ;    //    038-
                 ;    //    039-
                 ;
                 ;void xmitString(flash char * xmitMsg)
                 ; 0000 0013 {
                 
                 	.CSEG
                 _xmitString:
                 ;    int i =0;
                 ;    for(i = 0;*(xmitMsg+i)!= '\0';i++)
0001e9 931a      	ST   -Y,R17
0001ea 930a      	ST   -Y,R16
                 ;	*xmitMsg -> Y+2
                 ;	i -> R16,R17
                +
0001eb e000     +LDI R16 , LOW ( 0 )
0001ec e010     +LDI R17 , HIGH ( 0 )
                 	__GETWRN 16,17,0
                +
0001ed e000     +LDI R16 , LOW ( 0 )
0001ee e010     +LDI R17 , HIGH ( 0 )
                 	__GETWRN 16,17,0
                 _0x8:
0001ef 940e 0fd9 	CALL SUBOPT_0x0
0001f1 30e0      	CPI  R30,0
0001f2 f039      	BREQ _0x9
                 ;    {
                 ;         putchar(xmitMsg[i]);
0001f3 940e 0fd9 	CALL SUBOPT_0x0
0001f5 93ea      	ST   -Y,R30
0001f6 d1f9      	RCALL _putchar
                 ;
                 ;    }
                +
0001f7 5f0f     +SUBI R16 , LOW ( - 1 )
0001f8 4f1f     +SBCI R17 , HIGH ( - 1 )
                 	__ADDWRN 16,17,1
0001f9 cff5      	RJMP _0x8
                 _0x9:
                 ;
                 ;
                 ;
                 ;}
0001fa 8119      	LDD  R17,Y+1
0001fb 8108      	LDD  R16,Y+0
0001fc 9624      	ADIW R28,4
0001fd 9508      	RET
                 ;
                 ;void xmitStringnf(char * xmitMsgnf)
                 ;{
                 ;    int i =0;
                 ;    for(i = 0;*(xmitMsgnf+i)!= '\0';i++)
                 ;	*xmitMsgnf -> Y+2
                 ;	i -> R16,R17
                 ;    {
                 ;         putchar(xmitMsgnf[i]);
                 ;
                 ;    }
                 ;
                 ;
                 ;
                 ;}
                 ;
                 ;void noOp()
                 ;{
                 _noOp:
                 ;
                 ;}
0001fe 9508      	RET
                 ;
                 ;void mainOn()
                 ;{
                 _mainOn:
                 ;
                 ;    xmitMsg ="<001>";
                +
0001ff ece2     +LDI R30 , LOW ( 2 * _0x0 + ( 0 ) )
000200 e0f0     +LDI R31 , HIGH ( 2 * _0x0 + ( 0 ) )
                 	__POINTW1FN _0x0,0
000201 c005      	RJMP _0x2120013
                 ;    xmitString(xmitMsg);
                 ;
                 ;}
                 ;
                 ;void mainOff()
                 ;{
                 _mainOff:
                 ;
                 ;    xmitMsg = "<002>";
                +
000202 ece8     +LDI R30 , LOW ( 2 * _0x0 + ( 6 ) )
000203 e0f0     +LDI R31 , HIGH ( 2 * _0x0 + ( 6 ) )
                 	__POINTW1FN _0x0,6
000204 c002      	RJMP _0x2120013
                 ;    xmitString(xmitMsg);
                 ;
                 ;}
                 ;
                 ;void resetFault()
                 ;{
                 _resetFault:
                 ;    xmitMsg = "<003>";
                +
000205 ecee     +LDI R30 , LOW ( 2 * _0x0 + ( 12 ) )
000206 e0f0     +LDI R31 , HIGH ( 2 * _0x0 + ( 12 ) )
                 	__POINTW1FN _0x0,12
                 _0x2120013:
000207 93e0 05f6 	STS  _xmitMsg,R30
000209 93f0 05f7 	STS  _xmitMsg+1,R31
                 ;    xmitString(xmitMsg);
00020b 940e 0fe0 	CALL SUBOPT_0x1
                 ;}
00020d 9508      	RET
                 ;
                 ;void readOutputVolt()
                 ;{
                 ;    xmitMsg = "<010>";
                 ;    xmitString(xmitMsg);
                 ;
                 ;}
                 ;
                 ;void readBatteryAmp()
                 ;{
                 ;    xmitMsg = "<011>";
                 ;    xmitString(xmitMsg);
                 ;
                 ;}
                 ;
                 ;void txSetVoltage(int setVoltVal)
                 ;{
                 ;    int cpyVolt = setVoltVal;
                 ;    char* msg1 = "";
                 ;    sprintf(msg1,"<014-%04d>",cpyVolt);
                 ;	setVoltVal -> Y+4
                 ;	cpyVolt -> R16,R17
                 ;	*msg1 -> R18,R19
                 ;    xmitStringnf(msg1);
                 ;}
                 
                 	.DSEG
                 _0xD:
000500           	.BYTE 0x1
                 ;
                 ;void txSetCurrent(int setAmpVal)
                 ;{
                 
                 	.CSEG
                 ;    int cpyAmp = setAmpVal;
                 ;    char*msg1 = "";
                 ;    sprintf(msg1,"<015-%04d>",cpyAmp);
                 ;	setAmpVal -> Y+4
                 ;	cpyAmp -> R16,R17
                 ;	*msg1 -> R18,R19
                 ;    xmitStringnf(msg1);
                 ;
                 ;}
                 
                 	.DSEG
                 _0xE:
000501           	.BYTE 0x1
                 ;
                 ;/*static void (*tx_function[100])() = {
                 ;    noOp,  // 0
                 ;    mainOn,  // 1
                 ;    mainOff,  // 2
                 ;    resetFault,  // 3
                 ;    faultDetect, //4
                 ;    noOp,
                 ;    noOp,
                 ;    noOp,
                 ;    noOp,
                 ;    noOp,
                 ;    readOutputVolt,//10
                 ;    readBatteryAmp,//11
                 ;    //readInputVolt,//12
                 ;    //xreadOutputCurrent,//13
                 ;};*/
                 ;
                 ;
                 ;
                 ;
                 ;
                 ;//On receiving response from the TMS, further actions are taken by recFunc array
                 ;
                 ;
                 ;
                 ;
                 ;void rxnoOp()
                 ;{
                 
                 	.CSEG
                 ;}
                 ;
                 ;
                 ;void rxmainOn()
                 ;{
                 _rxmainOn:
                 ;    current_mainscreen_flag = 1;
00020e 940e 0fe4 	CALL SUBOPT_0x2
                 ;    PORTC.3 = 0;
000210 98ab      	CBI  0x15,3
                 ;    status = 1;
000211 e0e1      	LDI  R30,LOW(1)
000212 e0f0      	LDI  R31,HIGH(1)
000213 93e0 05b3 	STS  _status,R30
000215 93f0 05b4 	STS  _status+1,R31
                 ;}
000217 9508      	RET
                 ;
                 ;void rxmainOff()
                 ;{
                 _rxmainOff:
                 ;    current_mainscreen_flag = 1;
000218 940e 0fe4 	CALL SUBOPT_0x2
                 ;    status = 0;
00021a e0e0      	LDI  R30,LOW(0)
00021b 93e0 05b3 	STS  _status,R30
00021d 93e0 05b4 	STS  _status+1,R30
                 ;    PORTC.3 = 1;
00021f 9aab      	SBI  0x15,3
                 ;
                 ;}
000220 9508      	RET
                 ;
                 ;void rxresetFault()
                 ;{
                 _rxresetFault:
                 ;   fault_flag = 0;
000221 e0e0      	LDI  R30,LOW(0)
000222 93e0 05b5 	STS  _fault_flag,R30
000224 93e0 05b6 	STS  _fault_flag+1,R30
                 ;   current_mainscreen_flag = 1;
000226 940e 0fe4 	CALL SUBOPT_0x2
                 ;   status = 0;
000228 e0e0      	LDI  R30,LOW(0)
000229 93e0 05b3 	STS  _status,R30
00022b 93e0 05b4 	STS  _status+1,R30
                 ;}
00022d 9508      	RET
                 ;
                 ;void rxfaultDetect(int val)
                 ;{
                 _rxfaultDetect:
                 ;    int i = 0;//,j,k=0;
                 ;    int fault = 0;// cpyFault;
                 ;    //int fltBit[8],tmpBit[8];
                 ;    fault = val;
00022e 940e 1549 	CALL __SAVELOCR4
                 ;	val -> Y+4
                 ;	i -> R16,R17
                 ;	fault -> R18,R19
                +
000230 e000     +LDI R16 , LOW ( 0 )
000231 e010     +LDI R17 , HIGH ( 0 )
                 	__GETWRN 16,17,0
                +
000232 e020     +LDI R18 , LOW ( 0 )
000233 e030     +LDI R19 , HIGH ( 0 )
                 	__GETWRN 18,19,0
                +
000234 812c     +LDD R18 , Y + 4
000235 813d     +LDD R19 , Y + 4 + 1
                 	__GETWRS 18,19,4
                 ;
                 ;    if(fault!=0)
000236 2e02      	MOV  R0,R18
000237 2a03      	OR   R0,R19
000238 f059      	BREQ _0x13
                 ;    {
                 ;        PORTF &= ~0x40;
000239 91e0 0062 	LDS  R30,98
00023b 7bef      	ANDI R30,0xBF
00023c 93e0 0062 	STS  98,R30
                 ;        fault_flag = 1;
00023e e0e1      	LDI  R30,LOW(1)
00023f e0f0      	LDI  R31,HIGH(1)
000240 93e0 05b5 	STS  _fault_flag,R30
000242 93f0 05b6 	STS  _fault_flag+1,R31
                 ;       // mainOff();
                 ;
                 ;    }
                 ;    for(i=0;i<8;i++)
                 _0x13:
                +
000244 e000     +LDI R16 , LOW ( 0 )
000245 e010     +LDI R17 , HIGH ( 0 )
                 	__GETWRN 16,17,0
                 _0x15:
                +
000246 3008     +CPI R16 , LOW ( 8 )
000247 e0e0     +LDI R30 , HIGH ( 8 )
000248 071e     +CPC R17 , R30
                 	__CPWRN 16,17,8
000249 f4a4      	BRGE _0x16
                 ;    {
                 ;        fltArray[7-i] = fault%2 + 48;
00024a e0e7      	LDI  R30,LOW(7)
00024b e0f0      	LDI  R31,HIGH(7)
00024c 1be0      	SUB  R30,R16
00024d 0bf1      	SBC  R31,R17
00024e 52ee      	SUBI R30,LOW(-_fltArray)
00024f 4ffa      	SBCI R31,HIGH(-_fltArray)
000250 01bf      	MOVW R22,R30
000251 01d9      	MOVW R26,R18
000252 e0e2      	LDI  R30,LOW(2)
000253 e0f0      	LDI  R31,HIGH(2)
000254 940e 14f3 	CALL __MODW21
000256 5de0      	SUBI R30,-LOW(48)
000257 01db      	MOVW R26,R22
000258 93ec      	ST   X,R30
                 ;        fault = fault >> 1;
000259 9535      	ASR  R19
00025a 9527      	ROR  R18
                 ;
                 ;    }
                +
00025b 5f0f     +SUBI R16 , LOW ( - 1 )
00025c 4f1f     +SBCI R17 , HIGH ( - 1 )
                 	__ADDWRN 16,17,1
00025d cfe8      	RJMP _0x15
                 _0x16:
                 ;
                 ;//    numFlt = fltBit[0]+(fltBit[1]*10)+(fltBit[2]*100)
                 ;//    +(fltBit[3]*1000)+(fltBit[4]*10000)+(fltBit[5]*100000)+(fltBit[1]*1000000)+(fltBit[1]*10000000);
                 ;
                 ;//    if(fltBit[0] == 1)PORTC.3 = 0;
                 ;//    if(fltBit[1] == 1)PORTC.3 = 1;
                 ;//    if(fltBit[2] == 1)PORTF &= ~0x80;;
                 ;//    if(fltBit[3] == 1)PORTC.3 = 1  ;
                 ;//    if(fltBit[4] == 1)PORTC.3 = 1   ;
                 ;//    if(fltBit[5] == 1)PORTC.3 = 1    ;
                 ;//    if(fltBit[6] == 1)PORTC.3 = 1     ;
                 ;//    if(fltBit[7] == 1)PORTC.3 = 1      ;
                 ;//
                 ;
                 ;
                 ;
                 ;}
00025e c023      	RJMP _0x2120012
                 ;
                 ;void rxreadOutputVolt(int val)
                 ;{
                 _rxreadOutputVolt:
                 ;    actual_voltage = val;
                 ;	val -> Y+0
00025f 81e8      	LD   R30,Y
000260 81f9      	LDD  R31,Y+1
000261 93e0 059b 	STS  _actual_voltage_G000,R30
000263 93f0 059c 	STS  _actual_voltage_G000+1,R31
                 ;}
000265 c2ff      	RJMP _0x212000F
                 ;
                 ;
                 ;
                 ;void rxreadBatteryAmp(int val)
                 ;{
                 _rxreadBatteryAmp:
                 ;    int decimalPart;
                 ;    int integerPart;
                 ;    decimalPart = val%10;
000266 940e 0feb 	CALL SUBOPT_0x3
                 ;	val -> Y+4
                 ;	decimalPart -> R16,R17
                 ;	integerPart -> R18,R19
                 ;    integerPart = val/10;
                 ;    actual_btcurrentdp = decimalPart;
                +
000268 9300 059d+STS _actual_btcurrentdp_G000 + ( 0 ) , R16
00026a 9310 059e+STS _actual_btcurrentdp_G000 + ( 0 ) + 1 , R17
                 	__PUTWMRN _actual_btcurrentdp_G000,0,16,17
                 ;    actual_btcurrentip = integerPart;
                +
00026c 9320 059f+STS _actual_btcurrentip_G000 + ( 0 ) , R18
00026e 9330 05a0+STS _actual_btcurrentip_G000 + ( 0 ) + 1 , R19
                 	__PUTWMRN _actual_btcurrentip_G000,0,18,19
                 ;}
000270 c011      	RJMP _0x2120012
                 ;
                 ;void rxreadInputVolt(int val)
                 ;{
                 _rxreadInputVolt:
                 ;    actual_ipvoltage = val;
                 ;	val -> Y+0
000271 81e8      	LD   R30,Y
000272 81f9      	LDD  R31,Y+1
000273 93e0 05a1 	STS  _actual_ipvoltage_G000,R30
000275 93f0 05a2 	STS  _actual_ipvoltage_G000+1,R31
                 ;}
000277 c2ed      	RJMP _0x212000F
                 ;
                 ;void rxreadOutputCurrent(int val)
                 ;{
                 _rxreadOutputCurrent:
                 ;    int decimalPart;
                 ;    int integerPart;
                 ;    decimalPart = val%10;
000278 940e 0feb 	CALL SUBOPT_0x3
                 ;	val -> Y+4
                 ;	decimalPart -> R16,R17
                 ;	integerPart -> R18,R19
                 ;    integerPart = val/10;
                 ;    actual_opcurrentdp = decimalPart;
                +
00027a 9300 05a3+STS _actual_opcurrentdp_G000 + ( 0 ) , R16
00027c 9310 05a4+STS _actual_opcurrentdp_G000 + ( 0 ) + 1 , R17
                 	__PUTWMRN _actual_opcurrentdp_G000,0,16,17
                 ;    actual_opcurrentip = integerPart;
                +
00027e 9320 05a5+STS _actual_opcurrentip_G000 + ( 0 ) , R18
000280 9330 05a6+STS _actual_opcurrentip_G000 + ( 0 ) + 1 , R19
                 	__PUTWMRN _actual_opcurrentip_G000,0,18,19
                 ;}
                 _0x2120012:
000282 940e 1550 	CALL __LOADLOCR4
000284 9626      	ADIW R28,6
000285 9508      	RET
                 ;
                 ;
                 ;/*static void (*rx_function[100])() = {
                 ;    rxnoOp,  // 0
                 ;    rxmainOn,  // 1
                 ;    rxmainOff,  // 2
                 ;    rxresetFault,  // 3
                 ;    rxfaultDetect, //4
                 ;    rxnoOp,
                 ;    rxnoOp,
                 ;    rxnoOp,
                 ;    rxnoOp,
                 ;    rxnoOp,
                 ;    rxreadOutputVolt,//10
                 ;    rxreadBatteryAmp,//11
                 ;    rxreadInputVolt,//12
                 ;    rexreadOutputCurrent,//13
                 ;};*/
                 ;
                 ;
                 ;
                 ;void comDecode(char * rec)
                 ;{
                 _comDecode:
                 ;
                 ;    char cmd[3] = {'0','0','0'};
                 ;    char data[4] = {'0','0','0','0'};
                 ;    int icmd = 0;
                 ;    int idata = 0;
                 ;    int i;
                 ;
                 ;    for(i = 1; i < 4; i++)
000286 9727      	SBIW R28,7
000287 e3e0      	LDI  R30,LOW(48)
000288 83e8      	ST   Y,R30
000289 83e9      	STD  Y+1,R30
00028a 83ea      	STD  Y+2,R30
00028b 83eb      	STD  Y+3,R30
00028c 83ec      	STD  Y+4,R30
00028d 83ed      	STD  Y+5,R30
00028e 83ee      	STD  Y+6,R30
00028f 940e 1547 	CALL __SAVELOCR6
                 ;	*rec -> Y+13
                 ;	cmd -> Y+10
                 ;	data -> Y+6
                 ;	icmd -> R16,R17
                 ;	idata -> R18,R19
                 ;	i -> R20,R21
                +
000291 e000     +LDI R16 , LOW ( 0 )
000292 e010     +LDI R17 , HIGH ( 0 )
                 	__GETWRN 16,17,0
                +
000293 e020     +LDI R18 , LOW ( 0 )
000294 e030     +LDI R19 , HIGH ( 0 )
                 	__GETWRN 18,19,0
                +
000295 e041     +LDI R20 , LOW ( 1 )
000296 e050     +LDI R21 , HIGH ( 1 )
                 	__GETWRN 20,21,1
                 _0x18:
                +
000297 3044     +CPI R20 , LOW ( 4 )
000298 e0e0     +LDI R30 , HIGH ( 4 )
000299 075e     +CPC R21 , R30
                 	__CPWRN 20,21,4
00029a f44c      	BRGE _0x19
                 ;    {
                 ;       cmd[i-1] = rec[i];
00029b 01fa      	MOVW R30,R20
00029c 9731      	SBIW R30,1
00029d 01de      	MOVW R26,R28
00029e 961a      	ADIW R26,10
00029f 940e 0ffc 	CALL SUBOPT_0x4
                 ;    }
                +
0002a1 5f4f     +SUBI R20 , LOW ( - 1 )
0002a2 4f5f     +SBCI R21 , HIGH ( - 1 )
                 	__ADDWRN 20,21,1
0002a3 cff3      	RJMP _0x18
                 _0x19:
                 ;
                 ;    for(i = 5; i < 9; i++)
                +
0002a4 e045     +LDI R20 , LOW ( 5 )
0002a5 e050     +LDI R21 , HIGH ( 5 )
                 	__GETWRN 20,21,5
                 _0x1B:
                +
0002a6 3049     +CPI R20 , LOW ( 9 )
0002a7 e0e0     +LDI R30 , HIGH ( 9 )
0002a8 075e     +CPC R21 , R30
                 	__CPWRN 20,21,9
0002a9 f44c      	BRGE _0x1C
                 ;    {
                 ;       data[i-5] = rec[i];
0002aa 01fa      	MOVW R30,R20
0002ab 9735      	SBIW R30,5
0002ac 01de      	MOVW R26,R28
0002ad 9616      	ADIW R26,6
0002ae 940e 0ffc 	CALL SUBOPT_0x4
                 ;    }
                +
0002b0 5f4f     +SUBI R20 , LOW ( - 1 )
0002b1 4f5f     +SBCI R21 , HIGH ( - 1 )
                 	__ADDWRN 20,21,1
0002b2 cff3      	RJMP _0x1B
                 _0x1C:
                 ;
                 ;
                 ;    icmd = (cmd[2]-'0') + ((cmd[1] - '0')*10) + ((cmd[0]-'0')*100);
0002b3 85ec      	LDD  R30,Y+12
0002b4 940e 1008 	CALL SUBOPT_0x5
0002b6 01bf      	MOVW R22,R30
0002b7 85eb      	LDD  R30,Y+11
0002b8 940e 1008 	CALL SUBOPT_0x5
0002ba 940e 100b 	CALL SUBOPT_0x6
0002bc 85ea      	LDD  R30,Y+10
0002bd 940e 1008 	CALL SUBOPT_0x5
0002bf e6a4      	LDI  R26,LOW(100)
0002c0 e0b0      	LDI  R27,HIGH(100)
0002c1 940e 14d6 	CALL __MULW12
0002c3 0fe6      	ADD  R30,R22
0002c4 1ff7      	ADC  R31,R23
0002c5 018f      	MOVW R16,R30
                 ;    idata = (data[3]-'0') + ((data[2] - '0')*10) + ((data[1]-'0')*100) + ((data[0]-'0')*1000);
0002c6 85e9      	LDD  R30,Y+9
0002c7 940e 1008 	CALL SUBOPT_0x5
0002c9 01bf      	MOVW R22,R30
0002ca 85e8      	LDD  R30,Y+8
0002cb 940e 1008 	CALL SUBOPT_0x5
0002cd 940e 100b 	CALL SUBOPT_0x6
0002cf 81ef      	LDD  R30,Y+7
0002d0 940e 1008 	CALL SUBOPT_0x5
0002d2 e6a4      	LDI  R26,LOW(100)
0002d3 e0b0      	LDI  R27,HIGH(100)
0002d4 940e 14d6 	CALL __MULW12
                +
0002d6 0f6e     +ADD R22 , R30
0002d7 1f7f     +ADC R23 , R31
                 	__ADDWRR 22,23,30,31
0002d8 81ee      	LDD  R30,Y+6
0002d9 940e 1008 	CALL SUBOPT_0x5
0002db eea8      	LDI  R26,LOW(1000)
0002dc e0b3      	LDI  R27,HIGH(1000)
0002dd 940e 14d6 	CALL __MULW12
0002df 0fe6      	ADD  R30,R22
0002e0 1ff7      	ADC  R31,R23
0002e1 019f      	MOVW R18,R30
                 ;
                 ;   //rx_function[icmd]();
                 ;   switch(icmd)
0002e2 01f8      	MOVW R30,R16
                 ;   {
                 ;        case 0:  noOp();                    break;
0002e3 9730      	SBIW R30,0
0002e4 f411      	BRNE _0x20
0002e5 df18      	RCALL _noOp
0002e6 c06f      	RJMP _0x1F
                 ;        case 1:  rxmainOn();                break;
                 _0x20:
0002e7 30e1      	CPI  R30,LOW(0x1)
0002e8 e0a0      	LDI  R26,HIGH(0x1)
0002e9 07fa      	CPC  R31,R26
0002ea f411      	BRNE _0x21
0002eb df22      	RCALL _rxmainOn
0002ec c069      	RJMP _0x1F
                 ;        case 2:  rxmainOff();               break;
                 _0x21:
0002ed 30e2      	CPI  R30,LOW(0x2)
0002ee e0a0      	LDI  R26,HIGH(0x2)
0002ef 07fa      	CPC  R31,R26
0002f0 f411      	BRNE _0x22
0002f1 df26      	RCALL _rxmainOff
0002f2 c063      	RJMP _0x1F
                 ;        case 3:  rxresetFault();            break;
                 _0x22:
0002f3 30e3      	CPI  R30,LOW(0x3)
0002f4 e0a0      	LDI  R26,HIGH(0x3)
0002f5 07fa      	CPC  R31,R26
0002f6 f411      	BRNE _0x23
0002f7 df29      	RCALL _rxresetFault
0002f8 c05d      	RJMP _0x1F
                 ;        case 4:  rxfaultDetect(idata);      break;
                 _0x23:
0002f9 30e4      	CPI  R30,LOW(0x4)
0002fa e0a0      	LDI  R26,HIGH(0x4)
0002fb 07fa      	CPC  R31,R26
0002fc f421      	BRNE _0x24
0002fd 933a      	ST   -Y,R19
0002fe 932a      	ST   -Y,R18
0002ff df2e      	RCALL _rxfaultDetect
000300 c055      	RJMP _0x1F
                 ;        case 5:  noOp();                    break;
                 _0x24:
000301 30e5      	CPI  R30,LOW(0x5)
000302 e0a0      	LDI  R26,HIGH(0x5)
000303 07fa      	CPC  R31,R26
000304 f411      	BRNE _0x25
000305 def8      	RCALL _noOp
000306 c04f      	RJMP _0x1F
                 ;        case 6:  noOp();                    break;
                 _0x25:
000307 30e6      	CPI  R30,LOW(0x6)
000308 e0a0      	LDI  R26,HIGH(0x6)
000309 07fa      	CPC  R31,R26
00030a f411      	BRNE _0x26
00030b def2      	RCALL _noOp
00030c c049      	RJMP _0x1F
                 ;        case 7:  noOp();                    break;
                 _0x26:
00030d 30e7      	CPI  R30,LOW(0x7)
00030e e0a0      	LDI  R26,HIGH(0x7)
00030f 07fa      	CPC  R31,R26
000310 f411      	BRNE _0x27
000311 deec      	RCALL _noOp
000312 c043      	RJMP _0x1F
                 ;        case 8:  noOp();                    break;
                 _0x27:
000313 30e8      	CPI  R30,LOW(0x8)
000314 e0a0      	LDI  R26,HIGH(0x8)
000315 07fa      	CPC  R31,R26
000316 f411      	BRNE _0x28
000317 dee6      	RCALL _noOp
000318 c03d      	RJMP _0x1F
                 ;        case 9:  noOp();                    break;
                 _0x28:
000319 30e9      	CPI  R30,LOW(0x9)
00031a e0a0      	LDI  R26,HIGH(0x9)
00031b 07fa      	CPC  R31,R26
00031c f411      	BRNE _0x29
00031d dee0      	RCALL _noOp
00031e c037      	RJMP _0x1F
                 ;        case 10: rxreadOutputVolt(idata);   break;
                 _0x29:
00031f 30ea      	CPI  R30,LOW(0xA)
000320 e0a0      	LDI  R26,HIGH(0xA)
000321 07fa      	CPC  R31,R26
000322 f421      	BRNE _0x2A
000323 933a      	ST   -Y,R19
000324 932a      	ST   -Y,R18
000325 df39      	RCALL _rxreadOutputVolt
000326 c02f      	RJMP _0x1F
                 ;        case 11: rxreadBatteryAmp(idata);   break;
                 _0x2A:
000327 30eb      	CPI  R30,LOW(0xB)
000328 e0a0      	LDI  R26,HIGH(0xB)
000329 07fa      	CPC  R31,R26
00032a f421      	BRNE _0x2B
00032b 933a      	ST   -Y,R19
00032c 932a      	ST   -Y,R18
00032d df38      	RCALL _rxreadBatteryAmp
00032e c027      	RJMP _0x1F
                 ;        case 12: rxreadInputVolt(idata);    break;
                 _0x2B:
00032f 30ec      	CPI  R30,LOW(0xC)
000330 e0a0      	LDI  R26,HIGH(0xC)
000331 07fa      	CPC  R31,R26
000332 f421      	BRNE _0x2C
000333 933a      	ST   -Y,R19
000334 932a      	ST   -Y,R18
000335 df3b      	RCALL _rxreadInputVolt
000336 c01f      	RJMP _0x1F
                 ;        case 13: rxreadOutputCurrent(idata);break;
                 _0x2C:
000337 30ed      	CPI  R30,LOW(0xD)
000338 e0a0      	LDI  R26,HIGH(0xD)
000339 07fa      	CPC  R31,R26
00033a f421      	BRNE _0x2D
00033b 933a      	ST   -Y,R19
00033c 932a      	ST   -Y,R18
00033d df3a      	RCALL _rxreadOutputCurrent
00033e c017      	RJMP _0x1F
                 ;        case 14: noOp();                    break;
                 _0x2D:
00033f 30ee      	CPI  R30,LOW(0xE)
000340 e0a0      	LDI  R26,HIGH(0xE)
000341 07fa      	CPC  R31,R26
000342 f411      	BRNE _0x2E
000343 deba      	RCALL _noOp
000344 c011      	RJMP _0x1F
                 ;        case 15: noOp();                    break;
                 _0x2E:
000345 30ef      	CPI  R30,LOW(0xF)
000346 e0a0      	LDI  R26,HIGH(0xF)
000347 07fa      	CPC  R31,R26
000348 f411      	BRNE _0x2F
000349 deb4      	RCALL _noOp
00034a c00b      	RJMP _0x1F
                 ;        case 16: noOp();                    break;
                 _0x2F:
00034b 31e0      	CPI  R30,LOW(0x10)
00034c e0a0      	LDI  R26,HIGH(0x10)
00034d 07fa      	CPC  R31,R26
00034e f411      	BRNE _0x30
00034f deae      	RCALL _noOp
000350 c005      	RJMP _0x1F
                 ;        case 17: noOp();                    break;
                 _0x30:
000351 31e1      	CPI  R30,LOW(0x11)
000352 e0a0      	LDI  R26,HIGH(0x11)
000353 07fa      	CPC  R31,R26
000354 f409      	BRNE _0x32
000355 dea8      	RCALL _noOp
                 ;        default: ;
                 _0x32:
                 ;   }
                 _0x1F:
                 ;
                 ;//    if (icmd == 1) {  // <001>
                 ;//        rxmainOn();
                 ;//    }
                 ;//    else if (icmd == 2) {
                 ;//        rxmainOff();
                 ;//    }
                 ;//    else if (icmd == 3 ) {
                 ;//        rxresetFault();
                 ;//
                 ;//    }
                 ;//    else if (icmd == 4) {
                 ;//       rxfaultDetect(idata);
                 ;//    }
                 ;//
                 ;//    else if (icmd == 10 ){
                 ;//        rxreadOutputVolt(idata);
                 ;//
                 ;//    }
                 ;//    else if (icmd == 11 ){
                 ;//        rxreadBatteryAmp(idata);
                 ;//    }
                 ;//    else if (icmd == 12 ){
                 ;//        rxreadInputVolt(idata);
                 ;//    }
                 ;//    else if (icmd == 13 ){
                 ;//        rxreadOutputCurrent(idata);
                 ;//    }
                 ;
                 ;
                 ;}
000356 940e 154e 	CALL __LOADLOCR6
000358 962f      	ADIW R28,15
000359 9508      	RET
                 ;//#include "24c_eeprom.c"
                 ;//#include "i2cmaster.c"
                 ;
                 ;
                 ;// I2C Bus functions
                 ;#asm
                    .equ __i2c_port=0x12 ;PORTD
                    .equ __sda_bit=1
                    .equ __scl_bit=0
                 ; 0000 001D #endasm
                 ;#include <i2c.h>
                 ;
                 ;// DS1307 Real Time Clock functions
                 ;#include <ds1307.h>
                 ;
                 ;// Alphanumeric LCD Module functions
                 ;#include <alcd.h>
                 ;
                 ;#include "EEPROM.C"
                 ;#define EEPROM_ADDRESS 0xA0
                 ;
                 ;/* write a byte to the EEPROM */
                 ;void writeByte(int address, unsigned char data) {
                 ; 0000 0026 void writeByte(int address, unsigned char data) {
                 ;i2c_start();
                 ;	address -> Y+1
                 ;	data -> Y+0
                 ;i2c_write(EEPROM_ADDRESS);
                 ;i2c_write(address >> 8);
                 ;i2c_write(address);
                 ;i2c_write(data);
                 ;i2c_stop();
                 ;}
                 ;
                 ;/* read a byte from the EEPROM */
                 ;unsigned char readByte(int address) {
                 ;unsigned char data;
                 ;i2c_start();
                 ;	address -> Y+1
                 ;	data -> R17
                 ;i2c_write(EEPROM_ADDRESS);
                 ;i2c_write(address >> 8);
                 ;i2c_write(address);
                 ;i2c_start();
                 ;i2c_write(EEPROM_ADDRESS | 1);
                 ;data = i2c_read(0);
                 ;i2c_stop();
                 ;
                 ;return data;
                 ;}
                 ;
                 ;
                 ;/*write up to 128 bytes*/
                 ;
                 ;void writePage( int address, unsigned char *data, unsigned char len )
                 ;{
                 ;	int i;
                 ;
                 ;	i2c_start();
                 ;	address -> Y+5
                 ;	*data -> Y+3
                 ;	len -> Y+2
                 ;	i -> R16,R17
                 ;    i2c_write(EEPROM_ADDRESS);
                 ;	i2c_write(address >> 8);	// MSB of address
                 ;	i2c_write(address);		// LSB of address
                 ;
                 ;	// Write data
                 ;	for(i = 0; i < len; i++)
                 ;		i2c_write(*data++);
                 ;}
                 ;
                 ;/* Reads sequential data from the specified address */
                 ;void readData( int address, unsigned char *data, int len )
                 ;{
                 ;	int i;
                 ;
                 ;	i2c_start();
                 ;	address -> Y+6
                 ;	*data -> Y+4
                 ;	len -> Y+2
                 ;	i -> R16,R17
                 ;    i2c_write(EEPROM_ADDRESS);
                 ;	i2c_write(address >> 8);	// MSB of address
                 ;	i2c_write(address);		// LSB of address
                 ;
                 ;	// Start reading
                 ;    i2c_start();
                 ;	i2c_write(EEPROM_ADDRESS | 1);
                 ;	for( i = 0; i < len; i++ )
                 ;        {
                 ;//		    if(i<len-1)
                 ;//            *data++ = i2c_read(1);	// Send ACK as long as read<len  i.e. we want another byte
                 ;//	        else
                 ;//            *data++ = i2c_read(0);
                 ;            *data++ = i2c_read(i<len-1);
                 ;        }
                 ;	i2c_stop();
                 ;}
                 ;
                 ;
                 ;
                 ;
                 ;#ifndef RXB8
                 ;#define RXB8 1
                 ;#endif
                 ;
                 ;#ifndef TXB8
                 ;#define TXB8 0
                 ;#endif
                 ;
                 ;#ifndef UPE
                 ;#define UPE 2
                 ;#endif
                 ;
                 ;#ifndef DOR
                 ;#define DOR 3
                 ;#endif
                 ;
                 ;#ifndef FE
                 ;#define FE 4
                 ;#endif
                 ;
                 ;#ifndef UDRE
                 ;#define UDRE 5
                 ;#endif
                 ;
                 ;#ifndef RXC
                 ;#define RXC 7
                 ;#endif
                 ;
                 ;
                 ;// Standard Input/Output functions
                 ;#include <stdio.h>
                 ;
                 ;#define DATA_REGISTER_EMPTY (1<<UDRE0)
                 ;#define RX_COMPLETE (1<<RXC0)
                 ;#define FRAMING_ERROR (1<<FE0)
                 ;#define PARITY_ERROR (1<<UPE0)
                 ;#define DATA_OVERRUN (1<<DOR0)
                 ;
                 ;
                 ;//int data_received = 0;
                 ;
                 ;// USART0 Receiver buffer
                 ;#define RX_BUFFER_SIZE0 32
                 ;char rx_buffer0[RX_BUFFER_SIZE0];
                 ;
                 ;#if RX_BUFFER_SIZE0 <= 256
                 ;unsigned char rx_wr_index0=0,rx_rd_index0=0;
                 ;#else
                 ;unsigned int rx_wr_index0=0,rx_rd_index0=0;
                 ;#endif
                 ;
                 ;#if RX_BUFFER_SIZE0 < 256
                 ;unsigned char rx_counter0=0;
                 ;#else
                 ;unsigned int rx_counter0=0;
                 ;#endif
                 ;
                 ;
                 ;
                 ;// This flag is set on USART0 Receiver buffer overflow
                 ;bit rx_buffer_overflow0;
                 ;
                 ;
                 ;
                 ;// USART0 Receiver interrupt service routine
                 ;interrupt [USART0_RXC] void usart0_rx_isr(void)
                 ; 0000 006A {
                 _usart0_rx_isr:
00035a 920a      	ST   -Y,R0
00035b 921a      	ST   -Y,R1
00035c 92fa      	ST   -Y,R15
00035d 936a      	ST   -Y,R22
00035e 937a      	ST   -Y,R23
00035f 938a      	ST   -Y,R24
000360 939a      	ST   -Y,R25
000361 93aa      	ST   -Y,R26
000362 93ba      	ST   -Y,R27
000363 93ea      	ST   -Y,R30
000364 93fa      	ST   -Y,R31
000365 b7ef      	IN   R30,SREG
000366 93ea      	ST   -Y,R30
                 ; 0000 006B char status,data;
                 ; 0000 006C status=UCSR0A;
000367 931a      	ST   -Y,R17
000368 930a      	ST   -Y,R16
                 ;	status -> R17
                 ;	data -> R16
000369 b11b      	IN   R17,11
                 ; 0000 006D data=UDR0;
00036a b10c      	IN   R16,12
                 ; 0000 006E if ((status & (FRAMING_ERROR | PARITY_ERROR | DATA_OVERRUN))==0)
00036b 2fe1      	MOV  R30,R17
00036c 71ec      	ANDI R30,LOW(0x1C)
00036d f011      	BREQ PC+3
00036e 940c 03bc 	JMP _0x39
                 ; 0000 006F    {
                 ; 0000 0070    rx_buffer0[rx_wr_index0++]=data;
000370 91e0 0630 	LDS  R30,_rx_wr_index0
000372 5fef      	SUBI R30,-LOW(1)
000373 93e0 0630 	STS  _rx_wr_index0,R30
000375 940e 1012 	CALL SUBOPT_0x7
000377 5fe0      	SUBI R30,LOW(-_rx_buffer0)
000378 4ff9      	SBCI R31,HIGH(-_rx_buffer0)
000379 8300      	ST   Z,R16
                 ; 0000 0071      if(data == '<') {
00037a 330c      	CPI  R16,60
00037b f449      	BRNE _0x3A
                 ; 0000 0072         comStart = 1;
00037c e0e1      	LDI  R30,LOW(1)
00037d e0f0      	LDI  R31,HIGH(1)
00037e 93e0 060c 	STS  _comStart,R30
000380 93f0 060d 	STS  _comStart+1,R31
                 ; 0000 0073         i = 0;
000382 940e 1015 	CALL SUBOPT_0x8
                 ; 0000 0074 
                 ; 0000 0075     }
                 ; 0000 0076     else if(data == '>') {
000384 c010      	RJMP _0x3B
                 _0x3A:
000385 330e      	CPI  R16,62
000386 f471      	BRNE _0x3C
                 ; 0000 0077             *(rdataA+i) = data;
000387 940e 101b 	CALL SUBOPT_0x9
                 ; 0000 0078             comStart = 0;
000389 e0e0      	LDI  R30,LOW(0)
00038a 93e0 060c 	STS  _comStart,R30
00038c 93e0 060d 	STS  _comStart+1,R30
                 ; 0000 0079             i = 0;
00038e 940e 1015 	CALL SUBOPT_0x8
                 ; 0000 007A             comDecode(rdataA);
000390 efe8      	LDI  R30,LOW(_rdataA)
000391 e0f5      	LDI  R31,HIGH(_rdataA)
000392 93fa      	ST   -Y,R31
000393 93ea      	ST   -Y,R30
000394 def1      	RCALL _comDecode
                 ; 0000 007B     }
                 ; 0000 007C     if (comStart == 1) {
                 _0x3C:
                 _0x3B:
000395 91a0 060c 	LDS  R26,_comStart
000397 91b0 060d 	LDS  R27,_comStart+1
000399 9711      	SBIW R26,1
00039a f471      	BRNE _0x3D
                 ; 0000 007D             *(rdataA+i) = data;  // Read data
00039b 940e 101b 	CALL SUBOPT_0x9
                 ; 0000 007E             i++;
00039d e0ae      	LDI  R26,LOW(_i)
00039e e0b6      	LDI  R27,HIGH(_i)
00039f 940e 1023 	CALL SUBOPT_0xA
                 ; 0000 007F             if(i==9){i=0;}
0003a1 91a0 060e 	LDS  R26,_i
0003a3 91b0 060f 	LDS  R27,_i+1
0003a5 9719      	SBIW R26,9
0003a6 f411      	BRNE _0x3E
0003a7 940e 1015 	CALL SUBOPT_0x8
                 ; 0000 0080     }
                 _0x3E:
                 ; 0000 0081 
                 ; 0000 0082 
                 ; 0000 0083 //#if RX_BUFFER_SIZE0 == 256
                 ; 0000 0084 //   // special case for receiver buffer size=256
                 ; 0000 0085 //   if (++rx_counter0 == 0) rx_buffer_overflow0=1;
                 ; 0000 0086 //#else
                 ; 0000 0087    if (rx_wr_index0 == RX_BUFFER_SIZE0) rx_wr_index0=0;
                 _0x3D:
0003a9 91a0 0630 	LDS  R26,_rx_wr_index0
0003ab 32a0      	CPI  R26,LOW(0x20)
0003ac f419      	BRNE _0x3F
0003ad e0e0      	LDI  R30,LOW(0)
0003ae 93e0 0630 	STS  _rx_wr_index0,R30
                 ; 0000 0088    if (++rx_counter0 == RX_BUFFER_SIZE0)
                 _0x3F:
0003b0 91a0 0632 	LDS  R26,_rx_counter0
0003b2 5faf      	SUBI R26,-LOW(1)
0003b3 93a0 0632 	STS  _rx_counter0,R26
0003b5 32a0      	CPI  R26,LOW(0x20)
0003b6 f429      	BRNE _0x40
                 ; 0000 0089       {
                 ; 0000 008A       rx_counter0=0;
0003b7 e0e0      	LDI  R30,LOW(0)
0003b8 93e0 0632 	STS  _rx_counter0,R30
                 ; 0000 008B       rx_buffer_overflow0=1;
0003ba 9468      	SET
0003bb f820      	BLD  R2,0
                 ; 0000 008C       }
                 ; 0000 008D //#endif
                 ; 0000 008E    }//data_received = 1;
                 _0x40:
                 ; 0000 008F }
                 _0x39:
0003bc 9109      	LD   R16,Y+
0003bd 9119      	LD   R17,Y+
0003be 91e9      	LD   R30,Y+
0003bf bfef      	OUT  SREG,R30
0003c0 91f9      	LD   R31,Y+
0003c1 91e9      	LD   R30,Y+
0003c2 91b9      	LD   R27,Y+
0003c3 91a9      	LD   R26,Y+
0003c4 9199      	LD   R25,Y+
0003c5 9189      	LD   R24,Y+
0003c6 9179      	LD   R23,Y+
0003c7 9169      	LD   R22,Y+
0003c8 90f9      	LD   R15,Y+
0003c9 9019      	LD   R1,Y+
0003ca 9009      	LD   R0,Y+
0003cb 9518      	RETI
                 ;
                 ;#ifndef _DEBUG_TERMINAL_IO_
                 ;
                 ;
                 ;
                 ;// Get a character from the USART0 Receiver buffer
                 ;#define _ALTERNATE_GETCHAR_
                 ;#pragma used+
                 ;char getchar(void)
                 ; 0000 0099 {
                 ; 0000 009A char data;
                 ; 0000 009B while (rx_counter0==0);
                 ;	data -> R17
                 ; 0000 009C data=rx_buffer0[rx_rd_index0++];
                 ; 0000 009D #if RX_BUFFER_SIZE0 != 256
                 ; 0000 009E if (rx_rd_index0 == RX_BUFFER_SIZE0) rx_rd_index0=0;
                 ; 0000 009F #endif
                 ; 0000 00A0 #asm("cli")
                 ; 0000 00A1 --rx_counter0;
                 ; 0000 00A2 #asm("sei")
                 ; 0000 00A3 return data;
                 ; 0000 00A4 }
                 ;#pragma used-
                 ;#endif
                 ;
                 ;// USART0 Transmitter buffer
                 ;#define TX_BUFFER_SIZE0 64
                 ;char tx_buffer0[TX_BUFFER_SIZE0];
                 ;
                 ;#if TX_BUFFER_SIZE0 <= 256
                 ;unsigned char tx_wr_index0=0,tx_rd_index0=0;
                 ;#else
                 ;unsigned int tx_wr_index0=0,tx_rd_index0=0;
                 ;#endif
                 ;
                 ;#if TX_BUFFER_SIZE0 < 256
                 ;unsigned char tx_counter0=0;
                 ;#else
                 ;unsigned int tx_counter0=0;
                 ;#endif
                 ;
                 ;// USART0 Transmitter interrupt service routine
                 ;interrupt [USART0_TXC] void usart0_tx_isr(void)
                 ; 0000 00BA {
                 _usart0_tx_isr:
0003cc 93aa      	ST   -Y,R26
0003cd 93ea      	ST   -Y,R30
0003ce 93fa      	ST   -Y,R31
0003cf b7ef      	IN   R30,SREG
0003d0 93ea      	ST   -Y,R30
                 ; 0000 00BB if (tx_counter0)
0003d1 91e0 0675 	LDS  R30,_tx_counter0
0003d3 30e0      	CPI  R30,0
0003d4 f0a9      	BREQ _0x45
                 ; 0000 00BC    {
                 ; 0000 00BD    --tx_counter0;
0003d5 50e1      	SUBI R30,LOW(1)
0003d6 93e0 0675 	STS  _tx_counter0,R30
                 ; 0000 00BE    UDR0=tx_buffer0[tx_rd_index0++];
0003d8 91e0 0674 	LDS  R30,_tx_rd_index0
0003da 5fef      	SUBI R30,-LOW(1)
0003db 93e0 0674 	STS  _tx_rd_index0,R30
0003dd 940e 1012 	CALL SUBOPT_0x7
0003df 5ced      	SUBI R30,LOW(-_tx_buffer0)
0003e0 4ff9      	SBCI R31,HIGH(-_tx_buffer0)
0003e1 81e0      	LD   R30,Z
0003e2 b9ec      	OUT  0xC,R30
                 ; 0000 00BF #if TX_BUFFER_SIZE0 != 256
                 ; 0000 00C0    if (tx_rd_index0 == TX_BUFFER_SIZE0) tx_rd_index0=0;
0003e3 91a0 0674 	LDS  R26,_tx_rd_index0
0003e5 34a0      	CPI  R26,LOW(0x40)
0003e6 f419      	BRNE _0x46
0003e7 e0e0      	LDI  R30,LOW(0)
0003e8 93e0 0674 	STS  _tx_rd_index0,R30
                 ; 0000 00C1 #endif
                 ; 0000 00C2    }
                 _0x46:
                 ; 0000 00C3 }
                 _0x45:
0003ea 91e9      	LD   R30,Y+
0003eb bfef      	OUT  SREG,R30
0003ec 91f9      	LD   R31,Y+
0003ed 91e9      	LD   R30,Y+
0003ee 91a9      	LD   R26,Y+
0003ef 9518      	RETI
                 ;
                 ;
                 ;
                 ;#ifndef _DEBUG_TERMINAL_IO_
                 ;// Write a character to the USART0 Transmitter buffer
                 ;#define _ALTERNATE_PUTCHAR_
                 ;#pragma used+
                 ;void putchar(char c)
                 ; 0000 00CC {
                 _putchar:
                 ; 0000 00CD while (tx_counter0 == TX_BUFFER_SIZE0);
                 ;	c -> Y+0
                 _0x47:
0003f0 91a0 0675 	LDS  R26,_tx_counter0
0003f2 34a0      	CPI  R26,LOW(0x40)
0003f3 f3e1      	BREQ _0x47
                 ; 0000 00CE #asm("cli")
0003f4 94f8      	cli
                 ; 0000 00CF if (tx_counter0 || ((UCSR0A & DATA_REGISTER_EMPTY)==0))
0003f5 91e0 0675 	LDS  R30,_tx_counter0
0003f7 30e0      	CPI  R30,0
0003f8 f411      	BRNE _0x4B
0003f9 995d      	SBIC 0xB,5
0003fa c018      	RJMP _0x4A
                 _0x4B:
                 ; 0000 00D0    {
                 ; 0000 00D1    tx_buffer0[tx_wr_index0++]=c;
0003fb 91e0 0673 	LDS  R30,_tx_wr_index0
0003fd 5fef      	SUBI R30,-LOW(1)
0003fe 93e0 0673 	STS  _tx_wr_index0,R30
000400 940e 1012 	CALL SUBOPT_0x7
000402 5ced      	SUBI R30,LOW(-_tx_buffer0)
000403 4ff9      	SBCI R31,HIGH(-_tx_buffer0)
000404 81a8      	LD   R26,Y
000405 83a0      	STD  Z+0,R26
                 ; 0000 00D2 #if TX_BUFFER_SIZE0 != 256
                 ; 0000 00D3    if (tx_wr_index0 == TX_BUFFER_SIZE0) tx_wr_index0=0;
000406 91a0 0673 	LDS  R26,_tx_wr_index0
000408 34a0      	CPI  R26,LOW(0x40)
000409 f419      	BRNE _0x4D
00040a e0e0      	LDI  R30,LOW(0)
00040b 93e0 0673 	STS  _tx_wr_index0,R30
                 ; 0000 00D4 #endif
                 ; 0000 00D5    ++tx_counter0;
                 _0x4D:
00040d 91e0 0675 	LDS  R30,_tx_counter0
00040f 5fef      	SUBI R30,-LOW(1)
000410 93e0 0675 	STS  _tx_counter0,R30
                 ; 0000 00D6    }
                 ; 0000 00D7 else
000412 c002      	RJMP _0x4E
                 _0x4A:
                 ; 0000 00D8    UDR0=c;
000413 81e8      	LD   R30,Y
000414 b9ec      	OUT  0xC,R30
                 ; 0000 00D9 #asm("sei")
                 _0x4E:
000415 9478      	sei
                 ; 0000 00DA }
000416 9621      	ADIW R28,1
000417 9508      	RET
                 ;#pragma used-
                 ;#endif
                 ;
                 ;int on_pressed = 0;
                 ;int off_pressed = 0;
                 ;int reset_pressed = 0;
                 ;short int on_button_state = 0x0000;
                 ;short int off_button_state = 0x0000;
                 ;short int reset_button_state = 0x0000;
                 ;
                 ;// Timer3 overflow interrupt service routine
                 ;interrupt[TIM3_OVF] void timer3_ovf_isr(void) {
                 ; 0000 00E6 interrupt[30] void timer3_ovf_isr(void) {
                 _timer3_ovf_isr:
000418 93aa      	ST   -Y,R26
000419 93ba      	ST   -Y,R27
00041a 93ea      	ST   -Y,R30
00041b 93fa      	ST   -Y,R31
00041c b7ef      	IN   R30,SREG
00041d 93ea      	ST   -Y,R30
                 ; 0000 00E7 
                 ; 0000 00E8     // ISR called every 8.595 msec when TCCRB = 0x09, and OCR3A = 0xFFFF
                 ; 0000 00E9 
                 ; 0000 00EA     // switch debounce logic. refer: https://www.embedded.com/electronics-blogs/break-points/4024981/My-favorite-software-debouncers
                 ; 0000 00EB     // 16 bit shifts = approx 130msec debounce delay
                 ; 0000 00EC on_button_state = (0x8000 | !PINE.4) | (on_button_state << 1);
00041e e0e0      	LDI  R30,0
00041f 9b0c      	SBIS 0x1,4
000420 e0e1      	LDI  R30,1
000421 940e 1029 	CALL SUBOPT_0xB
000423 91e0 067c 	LDS  R30,_on_button_state
000425 91f0 067d 	LDS  R31,_on_button_state+1
000427 940e 102d 	CALL SUBOPT_0xC
000429 93e0 067c 	STS  _on_button_state,R30
00042b 93f0 067d 	STS  _on_button_state+1,R31
                 ; 0000 00ED     if(on_button_state == 0xC000) {
00042d 91a0 067c 	LDS  R26,_on_button_state
00042f 91b0 067d 	LDS  R27,_on_button_state+1
000431 30a0      	CPI  R26,LOW(0xC000)
000432 ece0      	LDI  R30,HIGH(0xC000)
000433 07be      	CPC  R27,R30
000434 f431      	BRNE _0x4F
                 ; 0000 00EE        on_pressed = 1;
000435 e0e1      	LDI  R30,LOW(1)
000436 e0f0      	LDI  R31,HIGH(1)
000437 93e0 0676 	STS  _on_pressed,R30
000439 93f0 0677 	STS  _on_pressed+1,R31
                 ; 0000 00EF 
                 ; 0000 00F0     }
                 ; 0000 00F1 
                 ; 0000 00F2     off_button_state = (0x8000 | !PINE.6) | (off_button_state << 1);
                 _0x4F:
00043b e0e0      	LDI  R30,0
00043c 9b0e      	SBIS 0x1,6
00043d e0e1      	LDI  R30,1
00043e 940e 1029 	CALL SUBOPT_0xB
000440 91e0 067e 	LDS  R30,_off_button_state
000442 91f0 067f 	LDS  R31,_off_button_state+1
000444 940e 102d 	CALL SUBOPT_0xC
000446 93e0 067e 	STS  _off_button_state,R30
000448 93f0 067f 	STS  _off_button_state+1,R31
                 ; 0000 00F3     if(off_button_state == 0xC000 ) {
00044a 91a0 067e 	LDS  R26,_off_button_state
00044c 91b0 067f 	LDS  R27,_off_button_state+1
00044e 30a0      	CPI  R26,LOW(0xC000)
00044f ece0      	LDI  R30,HIGH(0xC000)
000450 07be      	CPC  R27,R30
000451 f431      	BRNE _0x50
                 ; 0000 00F4         off_pressed = 1;
000452 e0e1      	LDI  R30,LOW(1)
000453 e0f0      	LDI  R31,HIGH(1)
000454 93e0 0678 	STS  _off_pressed,R30
000456 93f0 0679 	STS  _off_pressed+1,R31
                 ; 0000 00F5     }
                 ; 0000 00F6 
                 ; 0000 00F7     reset_button_state = (0x8000 | !PIND.4) | (reset_button_state << 1);
                 _0x50:
000458 e0e0      	LDI  R30,0
000459 9b84      	SBIS 0x10,4
00045a e0e1      	LDI  R30,1
00045b 940e 1029 	CALL SUBOPT_0xB
00045d 91e0 0680 	LDS  R30,_reset_button_state
00045f 91f0 0681 	LDS  R31,_reset_button_state+1
000461 940e 102d 	CALL SUBOPT_0xC
000463 93e0 0680 	STS  _reset_button_state,R30
000465 93f0 0681 	STS  _reset_button_state+1,R31
                 ; 0000 00F8     if(reset_button_state == 0xC000 ) {
000467 91a0 0680 	LDS  R26,_reset_button_state
000469 91b0 0681 	LDS  R27,_reset_button_state+1
00046b 30a0      	CPI  R26,LOW(0xC000)
00046c ece0      	LDI  R30,HIGH(0xC000)
00046d 07be      	CPC  R27,R30
00046e f431      	BRNE _0x51
                 ; 0000 00F9         reset_pressed = 1;
00046f e0e1      	LDI  R30,LOW(1)
000470 e0f0      	LDI  R31,HIGH(1)
000471 93e0 067a 	STS  _reset_pressed,R30
000473 93f0 067b 	STS  _reset_pressed+1,R31
                 ; 0000 00FA     }
                 ; 0000 00FB 
                 ; 0000 00FC }
                 _0x51:
000475 91e9      	LD   R30,Y+
000476 bfef      	OUT  SREG,R30
000477 91f9      	LD   R31,Y+
000478 91e9      	LD   R30,Y+
000479 91b9      	LD   R27,Y+
00047a 91a9      	LD   R26,Y+
00047b 9518      	RETI
                 ;
                 ;
                 ;// SPI functions
                 ;#include <spi.h>
                 ;//---------------THERMOCOUPLE------------
                 ;#include "Thermocouple.c"
                 ;//ThermoInit(void);
                 ;/*
                 ;/*
                 ; *  Define literals for the SPI port accesses and the thermocouple chip
                 ; *  select line.
                 ; */
                 ;#define  PORT_THERMO_CS           PORTE
                 ;#define  DDR_THERMO_CS            DDRE
                 ;#define  BIT_THERMO_CS            3
                 ;#define  MASK_THERMO_CS           (1<<BIT_THERMO_CS)
                 ;
                 ;#define  PORT_SPI                 PORTB
                 ;#define  DDR_SPI                  DDRB
                 ;#define  BIT_SPI_SCK              1
                 ;#define  MASK_SPI_SCK             (1<<BIT_SPI_SCK)
                 ;#define  BIT_SPI_SS               0
                 ;#define  MASK_SPI_SS              (1<<BIT_SPI_SS)
                 ;#define  BIT_SPI_MISO             3
                 ;#define  MASK_SPI_MISO            (1<<BIT_SPI_MISO)
                 ;
                 ;/*
                 ; *  ThermoInit      set up hardware for using the MAX31855
                 ; *
                 ; *  This routine configures the SPI as a master for exchanging
                 ; *  data with the MAX31855 thermocouple converter.  All pins
                 ; *  and registers for accessing the various port lines are
                 ; *  defined at the top of this code as named literals.
                 ; */
                 ;/*
                 ;void  ThermoInit(void)
                 ;{
                 ;    PORT_THERMO_CS |= MASK_THERMO_CS;        // start with CS high
                 ;    DDR_THERMO_CS |= MASK_THERMO_CS;         // now make that line an output
                 ;
                 ;    PORT_SPI |= MASK_SPI_SS;                 // SS* is not used but must be driven high
                 ;    DDR_SPI |= MASK_SPI_SS;                  // SS* is not used but must be driven high
                 ;    PORT_SPI &= ~MASK_SPI_SCK;               // drive SCK low
                 ;    DDR_SPI |= MASK_SPI_SCK;                 // now make SCK an output
                 ;
                 ;    SPCR = (1<<SPE) | (1<<MSTR) | (1<<SPR0) | (1<<SPR1) | (1<<CPHA);
                 ;                                             // enable SPI as master, slowest clock,
                 ;                                             // data active on trailing edge of SCK
                 ;}
                 ;
                 ;
                 ;/*
                 ; *  ThermoReadRaw      return 32-bit raw value from MAX31855
                 ; *
                 ; *  This routine uses a four-byte SPI exchange to collect a
                 ; *  raw reading from the MAX31855 thermocouple converter.  That
                 ; *  value is returned unprocessed to the calling routine.
                 ; *
                 ; *  Note that this routine does NO processing.  It does not
                 ; *  check for error flags or reasonable data ranges.
                 ;
                 ;//  d = 0x01900000;            // thermocouple = +25C, reference = 0C, no faults
                 ;//  d = 0xfff00000;            // thermocouple = -1C, reference = 0C, no faults
                 ;//  d = 0xf0600000;            // thermocouple = -250C, reference = 0C, no faults
                 ;//  d = 0x00010001;            // thermocouple = N/A, reference = N/A, open fault
                 ;//  d = 0x00010002;            // thermocouple = N/A, reference = N/A, short to GND
                 ;//  d = 0x00010004;            // thermocouple = N/A, refernece = N/A, short to VCC
                 ;*/
                 ;
                 ;/*
                 ;signed int  ThermoReadRaw (void)
                 ;{
                 ;    signed int                   d;
                 ;    unsigned char                n;
                 ;
                 ;    PORT_THERMO_CS &= ~MASK_THERMO_CS;    // pull thermo CS low
                 ;    d = 0;                                // start with nothing
                 ;    for (n=3; n!=0xff; n--)
                 ;    {
                 ;        SPDR = 0;                         // send a null byte
                 ;        while ((SPSR & (1<<SPIF)) == 0)  ;    // wait until transfer ends
                 ;        d = (d<<8) + SPDR;                // add next byte, starting with MSB
                 ;    }
                 ;    PORT_THERMO_CS |= MASK_THERMO_CS;     // done, pull CS high
                 ;    return  d;
                 ;}
                 ;
                 ;/*
                 ; *  ThermoReadC      return thermocouple temperature in degrees C
                 ; *
                 ; *  This routine takes a raw reading from the thermocouple converter
                 ; *  and translates that value into a temperature in degrees C.  That
                 ; *  value is returned to the calling routine as an integer value,
                 ; *  rounded.
                 ; *
                 ; *  The thermocouple value is stored in bits 31-18 as a signed 14-bit
                 ; *  value, where the LSB represents 0.25 degC.  To convert to an
                 ; *  integer value with no intermediate float operations, this code
                 ; *  shifts the value 20 places right, rather than 18, effectively
                 ; *  dividing the raw value by 4 and scaling it to unit degrees.
                 ; *
                 ; *  Note that this routine does NOT check the error flags in the
                 ; *  raw value.  This would be a nice thing to add later, when I've
                 ; *  figured out how I want to propagate the error conditions...
                 ; */
                 ; /*
                 ;int  ThermoReadC(void)
                 ;{
                 ;    signed int d;
                 ;    int neg;
                 ;
                 ;
                 ;    neg = 0;                    // assume a positive raw value
                 ;    d = ThermoReadRaw();        // get a raw value
                 ;    d = ((d >> 10) & 0x3fff);   // leave only thermocouple value in d
                 ;    if (d & 0x2000)             // if thermocouple reading is negative...
                 ;    {
                 ;        d = -d & 0x3fff;        // always work with positive values
                 ;        neg = 1;                // but note original value was negative
                 ;    }
                 ;    d = d + 2;                  // round up by 0.5 degC (2 LSBs)
                 ;    d = d >> 2;                 // now convert from 0.25 degC units to degC
                 ;    if (neg)  d = -d;           // convert to negative if needed
                 ;    return  d;                  // return as integer
                 ;}
                 ;   */
                 ;
                 ;/*
                 ; *  ThermoReadF      return thermocouple temperature in degrees F
                 ; *
                 ; *  This routine takes a reading from the thermocouple converter in
                 ; *  degC and converts it to degF.
                 ; *
                 ; *  Note that this routine simply calls ThermoReadC and converts
                 ; *  from degC to degF using integer math.  This routine does not
                 ; *  see the raw converter value and cannot do any error checking.
                 ; */
                 ;/*int  ThermoReadF(void)
                 ;{
                 ;    int t;
                 ;
                 ;    t = ThermoReadC();           // get the value in degC
                 ;    t = ((t * 90) / 50) + 32;    // convert to degF
                 ;    return  t;                   // all done
                 ;}*/
                 ;
                 ;
                 ;//---------------Variables---------------
                 ;#include <variables.h>
                 ;//-------------Display Functions---------
                 ;#include "Display_functions.c"
                 ;//#include <variables.h>
                 ;
                 ;void pointer_display_horiz()                          //checks the cursor position.
                 ; 0000 0106 {
                 _pointer_display_horiz:
                 ;    lcd_gotoxy(0,2);
00047c 940e 1032 	CALL SUBOPT_0xD
                 ;    lcd_putsf(" ");
                 ;    lcd_gotoxy(1,2);
00047e 940e 103e 	CALL SUBOPT_0xE
                 ;    lcd_putsf(" ");
000480 940e 1044 	CALL SUBOPT_0xF
                 ;    lcd_gotoxy(2,2);
000482 e0e2      	LDI  R30,LOW(2)
000483 940e 104a 	CALL SUBOPT_0x10
                 ;    lcd_putsf(" ");
                 ;    lcd_gotoxy(3,2);
000485 e0e3      	LDI  R30,LOW(3)
000486 940e 104a 	CALL SUBOPT_0x10
                 ;    lcd_putsf(" ");
                 ;    lcd_gotoxy(4,2);
000488 e0e4      	LDI  R30,LOW(4)
000489 940e 104a 	CALL SUBOPT_0x10
                 ;    lcd_putsf(" ");
                 ;    lcd_gotoxy(5,2);
00048b e0e5      	LDI  R30,LOW(5)
00048c 940e 104a 	CALL SUBOPT_0x10
                 ;    lcd_putsf(" ");
                 ;    lcd_gotoxy(6,2);
00048e e0e6      	LDI  R30,LOW(6)
00048f 940e 104a 	CALL SUBOPT_0x10
                 ;    lcd_putsf(" ");
                 ;    lcd_gotoxy(7,2);
000491 e0e7      	LDI  R30,LOW(7)
000492 940e 104a 	CALL SUBOPT_0x10
                 ;    lcd_putsf(" ");
                 ;    lcd_gotoxy(8,2);
000494 e0e8      	LDI  R30,LOW(8)
000495 940e 104a 	CALL SUBOPT_0x10
                 ;    lcd_putsf(" ");
                 ;    lcd_gotoxy(9,2);
000497 e0e9      	LDI  R30,LOW(9)
000498 940e 104a 	CALL SUBOPT_0x10
                 ;    lcd_putsf(" ");
                 ;    lcd_gotoxy(10,2);
00049a e0ea      	LDI  R30,LOW(10)
00049b 940e 104a 	CALL SUBOPT_0x10
                 ;    lcd_putsf(" ");
                 ;    lcd_gotoxy(11,2);
00049d e0eb      	LDI  R30,LOW(11)
00049e 940e 104a 	CALL SUBOPT_0x10
                 ;    lcd_putsf(" ");
                 ;    lcd_gotoxy(Pointer_horiz,2);                      //Pointer displays arrow at that position
0004a0 928a      	ST   -Y,R8
0004a1 940e 1050 	CALL SUBOPT_0x11
                 ;    lcd_putsf("^");
                +
0004a3 efe8     +LDI R30 , LOW ( 2 * _0x0 + ( 54 ) )
0004a4 e0f0     +LDI R31 , HIGH ( 2 * _0x0 + ( 54 ) )
                 	__POINTW1FN _0x0,54
0004a5 c016      	RJMP _0x2120011
                 ;}
                 ;
                 ;void pointer_display_vert()                          //checks the cursor position.
                 ;{
                 _pointer_display_vert:
                 ;    lcd_gotoxy(0,0);
0004a6 940e 1054 	CALL SUBOPT_0x12
                 ;    lcd_putsf(" ");
0004a8 940e 1044 	CALL SUBOPT_0xF
                 ;    lcd_gotoxy(0,1);
0004aa 940e 1059 	CALL SUBOPT_0x13
                 ;    lcd_putsf(" ");
0004ac 940e 1044 	CALL SUBOPT_0xF
                 ;    lcd_gotoxy(0,2);
0004ae 940e 1032 	CALL SUBOPT_0xD
                 ;    lcd_putsf(" ");
                 ;    lcd_gotoxy(0,3);
0004b0 e0e0      	LDI  R30,LOW(0)
0004b1 940e 105f 	CALL SUBOPT_0x14
                 ;    lcd_putsf(" ");
0004b3 940e 1044 	CALL SUBOPT_0xF
                 ;    lcd_gotoxy(0,Pointer_vert);                      //Pointer displays arrow at that position
0004b5 e0e0      	LDI  R30,LOW(0)
0004b6 93ea      	ST   -Y,R30
0004b7 92aa      	ST   -Y,R10
0004b8 940e 0ed5 	CALL _lcd_gotoxy
                 ;    lcd_putsf(">");
                +
0004ba ece6     +LDI R30 , LOW ( 2 * _0x0 + ( 4 ) )
0004bb e0f0     +LDI R31 , HIGH ( 2 * _0x0 + ( 4 ) )
                 	__POINTW1FN _0x0,4
                 _0x2120011:
0004bc 93fa      	ST   -Y,R31
0004bd 93ea      	ST   -Y,R30
0004be 940e 0f2c 	CALL _lcd_putsf
                 ;}
0004c0 9508      	RET
                 ;
                 ;
                 ;
                 ;void show_volt()
                 ;{
                 _show_volt:
                 ;    sprintf(disp_volt,"%03d",temp_voltage);
0004c1 edeb      	LDI  R30,LOW(_disp_volt)
0004c2 e0f5      	LDI  R31,HIGH(_disp_volt)
0004c3 940e 1064 	CALL SUBOPT_0x15
0004c5 940e 106b 	CALL SUBOPT_0x16
0004c7 940e 1070 	CALL SUBOPT_0x17
                 ;    lcd_gotoxy(0,1);
                 ;    lcd_puts(disp_volt);
0004c9 edeb      	LDI  R30,LOW(_disp_volt)
0004ca e0f5      	LDI  R31,HIGH(_disp_volt)
0004cb c023      	RJMP _0x2120010
                 ;}
                 ;void show_current()
                 ;{
                 _show_current:
                 ;    sprintf(disp_current,"%02d",temp_current);
0004cc edee      	LDI  R30,LOW(_disp_current)
0004cd e0f5      	LDI  R31,HIGH(_disp_current)
0004ce 93fa      	ST   -Y,R31
0004cf 93ea      	ST   -Y,R30
                +
0004d0 efef     +LDI R30 , LOW ( 2 * _0x0 + ( 61 ) )
0004d1 e0f0     +LDI R31 , HIGH ( 2 * _0x0 + ( 61 ) )
                 	__POINTW1FN _0x0,61
0004d2 93fa      	ST   -Y,R31
0004d3 93ea      	ST   -Y,R30
0004d4 940e 1079 	CALL SUBOPT_0x18
0004d6 940e 1070 	CALL SUBOPT_0x17
                 ;    lcd_gotoxy(0,1);
                 ;    lcd_puts(disp_current);
0004d8 edee      	LDI  R30,LOW(_disp_current)
0004d9 e0f5      	LDI  R31,HIGH(_disp_current)
0004da c014      	RJMP _0x2120010
                 ;}
                 ;
                 ;void show_time()
                 ;{
                 _show_time:
                 ;    sprintf(disp_temp_time,"%02d:%02d:%02d",temp_hour,temp_minute,temp_second);
0004db ece4      	LDI  R30,LOW(_disp_temp_time)
0004dc e0f5      	LDI  R31,HIGH(_disp_temp_time)
0004dd 940e 107e 	CALL SUBOPT_0x19
0004df 91e0 05c1 	LDS  R30,_temp_hour
0004e1 940e 1085 	CALL SUBOPT_0x1A
0004e3 91e0 05c2 	LDS  R30,_temp_minute
0004e5 940e 1085 	CALL SUBOPT_0x1A
0004e7 91e0 05c3 	LDS  R30,_temp_second
0004e9 940e 1085 	CALL SUBOPT_0x1A
0004eb 940e 108b 	CALL SUBOPT_0x1B
                 ;    lcd_gotoxy(0,1);
                 ;    lcd_puts(disp_temp_time);
0004ed ece4      	LDI  R30,LOW(_disp_temp_time)
0004ee e0f5      	LDI  R31,HIGH(_disp_temp_time)
                 _0x2120010:
0004ef 93fa      	ST   -Y,R31
0004f0 93ea      	ST   -Y,R30
0004f1 940e 0f1e 	CALL _lcd_puts
                 ;}
0004f3 9508      	RET
                 ;
                 ;void show_date()
                 ;{
                 _show_date:
                 ;    sprintf(disp_temp_date,"%02d/%02d/%02d",temp_date,temp_month,temp_year);
0004f4 ece8      	LDI  R30,LOW(_disp_temp_date)
0004f5 e0f5      	LDI  R31,HIGH(_disp_temp_date)
0004f6 940e 1090 	CALL SUBOPT_0x1C
0004f8 91e0 05c5 	LDS  R30,_temp_date
0004fa 940e 1085 	CALL SUBOPT_0x1A
0004fc 91e0 05c6 	LDS  R30,_temp_month
0004fe 940e 1085 	CALL SUBOPT_0x1A
000500 91e0 05c7 	LDS  R30,_temp_year
000502 940e 1085 	CALL SUBOPT_0x1A
000504 940e 108b 	CALL SUBOPT_0x1B
                 ;    lcd_gotoxy(0,1);
                 ;    lcd_puts(disp_temp_date);
000506 ece8      	LDI  R30,LOW(_disp_temp_date)
000507 e0f5      	LDI  R31,HIGH(_disp_temp_date)
000508 c432      	RJMP _0x212000B
                 ;}
                 ;//----Input and val change functions-----
                 ;#include "Change.c"
                 ;#include "Inputs.c"
                 ;//#include <variables.h>
                 ;
                 ;
                 ;
                 ;void input(int next)                         //next recieves value no of options we will have in the next menu
                 ; 0000 0109 {
                 _input:
                 ;    Pt = Pointer_vert;
                 ;	next -> Y+0
000509 0165      	MOVW R12,R10
                 ;    pointer_display_vert();
00050a df9b      	RCALL _pointer_display_vert
                 ;    delay_ms(100);
00050b 940e 1097 	CALL SUBOPT_0x1D
                 ;    if (PINE.7 == 0)                                            //UP
00050d 990f      	SBIC 0x1,7
00050e c017      	RJMP _0x52
                 ;       {
                 ;        while(PINE.7 == 0);
                 _0x53:
00050f 9b0f      	SBIS 0x1,7
000510 cffe      	RJMP _0x53
                 ;        Pt--;
000511 01f6      	MOVW R30,R12
000512 9731      	SBIW R30,1
000513 016f      	MOVW R12,R30
                 ;        Pointer_vert = ((Pt < 0) ? (next+Pt): Pt) % next;
000514 2400      	CLR  R0
000515 14c0      	CP   R12,R0
000516 04d0      	CPC  R13,R0
000517 f434      	BRGE _0x56
000518 01f6      	MOVW R30,R12
000519 81a8      	LD   R26,Y
00051a 81b9      	LDD  R27,Y+1
00051b 0fea      	ADD  R30,R26
00051c 1ffb      	ADC  R31,R27
00051d c001      	RJMP _0x57
                 _0x56:
00051e 01f6      	MOVW R30,R12
                 _0x57:
00051f 01df      	MOVW R26,R30
000520 81e8      	LD   R30,Y
000521 81f9      	LDD  R31,Y+1
000522 940e 14f3 	CALL __MODW21
000524 015f      	MOVW R10,R30
                 ;        pointer_display_vert();
000525 df80      	RCALL _pointer_display_vert
                 ;       }
                 ;
                 ;    if (PINE.5 == 0)                                            //DOWN
                 _0x52:
000526 990d      	SBIC 0x1,5
000527 c00c      	RJMP _0x59
                 ;       {
                 ;        while(PINE.5 == 0);
                 _0x5A:
000528 9b0d      	SBIS 0x1,5
000529 cffe      	RJMP _0x5A
                 ;        Pointer_vert++;
00052a 01f5      	MOVW R30,R10
00052b 9631      	ADIW R30,1
00052c 015f      	MOVW R10,R30
                 ;        Pointer_vert = Pointer_vert % next;
00052d 81e8      	LD   R30,Y
00052e 81f9      	LDD  R31,Y+1
00052f 01d5      	MOVW R26,R10
000530 940e 14f3 	CALL __MODW21
000532 015f      	MOVW R10,R30
                 ;        pointer_display_vert();
000533 df72      	RCALL _pointer_display_vert
                 ;       }
                 ;
                 ;    if (PINB.3 == 0)                                            //ENTER
                 _0x59:
000534 99b3      	SBIC 0x16,3
000535 c012      	RJMP _0x5D
                 ;       {
                 ;        while(PINB.3 == 0);
                 _0x5E:
000536 9bb3      	SBIS 0x16,3
000537 cffe      	RJMP _0x5E
                 ;        if(Screen < 10)
000538 e0ea      	LDI  R30,LOW(10)
000539 e0f0      	LDI  R31,HIGH(10)
00053a 164e      	CP   R4,R30
00053b 065f      	CPC  R5,R31
00053c f41c      	BRGE _0x61
                 ;        {
                 ;            Screen = ((Screen+1)*10) + Pointer_vert;
00053d 01f2      	MOVW R30,R4
00053e 9631      	ADIW R30,1
00053f c001      	RJMP _0x10E
                 ;        }
                 ;        else
                 _0x61:
                 ;        {
                 ;            Screen = ((Screen)*10) + Pointer_vert;
000540 01f2      	MOVW R30,R4
                 _0x10E:
000541 e0aa      	LDI  R26,LOW(10)
000542 e0b0      	LDI  R27,HIGH(10)
000543 940e 14d6 	CALL __MULW12
000545 0dea      	ADD  R30,R10
000546 1dfb      	ADC  R31,R11
000547 012f      	MOVW R4,R30
                 ;        }
                 ;
                 ;
                 ;       }
                 ;
                 ;    if (PIND.2 == 0)                                            //ESCAPE
                 _0x5D:
000548 9982      	SBIC 0x10,2
000549 c01b      	RJMP _0x63
                 ;       {
                 ;        while(PIND.2 == 0);
                 _0x64:
00054a 9b82      	SBIS 0x10,2
00054b cffe      	RJMP _0x64
                 ;
                 ;            if (Screen == 2)
00054c e0e2      	LDI  R30,LOW(2)
00054d e0f0      	LDI  R31,HIGH(2)
00054e 15e4      	CP   R30,R4
00054f 05f5      	CPC  R31,R5
000550 f429      	BRNE _0x67
                 ;            {
                 ;              main_screen_trigger = 1;
000551 940e 109d 	CALL SUBOPT_0x1E
                 ;              current_mainscreen_flag = 1;
                 ;              Current_Screen = 0;
000553 940e 10a4 	CALL SUBOPT_0x1F
                 ;              set_flag = 1;
                 ;            }
                 ;            else if(Screen > 100)
000555 c00f      	RJMP _0x68
                 _0x67:
000556 940e 10ad 	CALL SUBOPT_0x20
000558 f41c      	BRGE _0x69
                 ;            {
                 ;                Screen = Screen/10;
000559 940e 10b2 	CALL SUBOPT_0x21
00055b c003      	RJMP _0x10F
                 ;                n = 0;
                 ;            }
                 ;            else
                 _0x69:
                 ;            {
                 ;                Screen = (Screen/10)-1;
00055c 940e 10b2 	CALL SUBOPT_0x21
00055e 9731      	SBIW R30,1
                 _0x10F:
00055f 012f      	MOVW R4,R30
                 ;                n = 0;
000560 e0e0      	LDI  R30,LOW(0)
000561 93e0 05ab 	STS  _n,R30
000563 93e0 05ac 	STS  _n+1,R30
                 ;            }
                 _0x68:
                 ;
                 ;
                 ;       }
                 ;
                 ;}
                 _0x63:
                 _0x212000F:
000565 9622      	ADIW R28,2
000566 9508      	RET
                 ;
                 ;
                 ;void input_volt(int next)
                 ;{
                 _input_volt:
                 ;    int change = pow(10,(next-Pointer_horiz-1));
                 ;    pointer_display_horiz();
000567 940e 10b8 	CALL SUBOPT_0x22
                 ;	next -> Y+2
                 ;	change -> R16,R17
                 ;    delay_ms(100);
                 ;    if (PINE.7 == 0)                                            //UP     1
000569 990f      	SBIC 0x1,7
00056a c01a      	RJMP _0x6B
                 ;       {
                 ;        while(PINE.7 == 0);
                 _0x6C:
00056b 9b0f      	SBIS 0x1,7
00056c cffe      	RJMP _0x6C
                 ;        if(change == 1)
00056d 940e 10d8 	CALL SUBOPT_0x23
00056f f431      	BRNE _0x6F
                 ;        {temp_voltage = temp_voltage + (change);}
000570 01f8      	MOVW R30,R16
000571 940e 10dd 	CALL SUBOPT_0x24
000573 0fea      	ADD  R30,R26
000574 1ffb      	ADC  R31,R27
000575 c005      	RJMP _0x110
                 ;        else
                 _0x6F:
                 ;        {temp_voltage = temp_voltage + 1 + (change);}
000576 940e 106b 	CALL SUBOPT_0x16
000578 9631      	ADIW R30,1
000579 0fe0      	ADD  R30,R16
00057a 1ff1      	ADC  R31,R17
                 _0x110:
00057b 93e0 058f 	STS  _temp_voltage,R30
00057d 93f0 0590 	STS  _temp_voltage+1,R31
                 ;        temp_voltage = temp_voltage % 1000;
00057f 940e 10e2 	CALL SUBOPT_0x25
000581 940e 10e6 	CALL SUBOPT_0x26
                 ;        show_volt();
000583 df3d      	RCALL _show_volt
                 ;        pointer_display_horiz();
000584 def7      	RCALL _pointer_display_horiz
                 ;       }
                 ;
                 ;    if (PINE.5 == 0)                                            //Next   2
                 _0x6B:
000585 990d      	SBIC 0x1,5
000586 c004      	RJMP _0x71
                 ;       {
                 ;        while(PINE.5 == 0);
                 _0x72:
000587 9b0d      	SBIS 0x1,5
000588 cffe      	RJMP _0x72
                 ;        Pointer_horiz++;
000589 940e 10ed 	CALL SUBOPT_0x27
                 ;
                 ;        Pointer_horiz = Pointer_horiz % next;
                 ;        pointer_display_horiz();
                 ;       }
                 ;
                 ;    if (PINB.3 == 0)                                             //ENTER 3
                 _0x71:
00058b 99b3      	SBIC 0x16,3
00058c c079      	RJMP _0x75
                 ;        {
                 ;         while(PINB.3 == 0);
                 _0x76:
00058d 9bb3      	SBIS 0x16,3
00058e cffe      	RJMP _0x76
                 ;         if(110 <= temp_voltage && temp_voltage <= 135)
00058f 940e 106b 	CALL SUBOPT_0x16
000591 36ee      	CPI  R30,LOW(0x6E)
000592 e0a0      	LDI  R26,HIGH(0x6E)
000593 07fa      	CPC  R31,R26
000594 f034      	BRLT _0x7A
000595 940e 10dd 	CALL SUBOPT_0x24
000597 38a8      	CPI  R26,LOW(0x88)
000598 e0e0      	LDI  R30,HIGH(0x88)
000599 07be      	CPC  R27,R30
00059a f00c      	BRLT _0x7B
                 _0x7A:
00059b c04c      	RJMP _0x79
                 _0x7B:
                 ;         {
                 ;
                 ;            lcd_clear();
00059c 940e 10f8 	CALL SUBOPT_0x28
                 ;            lcd_gotoxy(0,0);
                 ;            lcd_puts("Voltage set to:");
                +
00059e e0e2     +LDI R30 , LOW ( _0x7C + ( 0 ) )
00059f e0f5     +LDI R31 , HIGH ( _0x7C + ( 0 ) )
                 	__POINTW1MN _0x7C,0
0005a0 940e 10fb 	CALL SUBOPT_0x29
                 ;            lcd_gotoxy(4,1);
0005a2 e0e4      	LDI  R30,LOW(4)
0005a3 940e 10ff 	CALL SUBOPT_0x2A
                 ;            lcd_putsf("V");
                +
0005a5 e3e2     +LDI R30 , LOW ( 2 * _0x0 + ( 112 ) )
0005a6 e0f1     +LDI R31 , HIGH ( 2 * _0x0 + ( 112 ) )
                 	__POINTW1FN _0x0,112
0005a7 940e 1104 	CALL SUBOPT_0x2B
                 ;            show_volt();
0005a9 df17      	RCALL _show_volt
                 ;            set_voltage = temp_voltage;
0005aa 940e 106b 	CALL SUBOPT_0x16
0005ac 940e 14c9 	CALL __CWD1
0005ae 940e 1108 	CALL SUBOPT_0x2C
                 ;            flag = 11;
0005b0 940e 1111 	CALL SUBOPT_0x2D
                 ;            Screen = 30;
0005b2 e1ee      	LDI  R30,LOW(30)
0005b3 e0f0      	LDI  R31,HIGH(30)
0005b4 012f      	MOVW R4,R30
                 ;
                 ;            xmitString("<014-");
                +
0005b5 e3e4     +LDI R30 , LOW ( 2 * _0x0 + ( 114 ) )
0005b6 e0f1     +LDI R31 , HIGH ( 2 * _0x0 + ( 114 ) )
                 	__POINTW1FN _0x0,114
0005b7 940e 0fe0 	CALL SUBOPT_0x1
                 ;
                 ;            putchar(temp_voltage/1000 + 48);
0005b9 940e 10e2 	CALL SUBOPT_0x25
0005bb 940e 1118 	CALL SUBOPT_0x2E
                 ;            temp_voltage %= 1000;
0005bd 940e 10e2 	CALL SUBOPT_0x25
0005bf 940e 10e6 	CALL SUBOPT_0x26
                 ;            putchar(temp_voltage/100 + 48);
0005c1 940e 10dd 	CALL SUBOPT_0x24
0005c3 e6e4      	LDI  R30,LOW(100)
0005c4 e0f0      	LDI  R31,HIGH(100)
0005c5 940e 1118 	CALL SUBOPT_0x2E
                 ;            temp_voltage %= 100;
0005c7 940e 10dd 	CALL SUBOPT_0x24
0005c9 e6e4      	LDI  R30,LOW(100)
0005ca e0f0      	LDI  R31,HIGH(100)
0005cb 940e 10e6 	CALL SUBOPT_0x26
                 ;            putchar(temp_voltage/10 + 48);
0005cd 940e 10dd 	CALL SUBOPT_0x24
0005cf e0ea      	LDI  R30,LOW(10)
0005d0 e0f0      	LDI  R31,HIGH(10)
0005d1 940e 1118 	CALL SUBOPT_0x2E
                 ;            temp_voltage %= 10;
0005d3 940e 10dd 	CALL SUBOPT_0x24
0005d5 e0ea      	LDI  R30,LOW(10)
0005d6 e0f0      	LDI  R31,HIGH(10)
0005d7 940e 10e6 	CALL SUBOPT_0x26
                 ;            putchar(temp_voltage + 48);
0005d9 91e0 058f 	LDS  R30,_temp_voltage
0005db 5de0      	SUBI R30,-LOW(48)
0005dc 93ea      	ST   -Y,R30
0005dd de12      	RCALL _putchar
                 ;            temp_voltage = 0;
0005de e0e0      	LDI  R30,LOW(0)
0005df 93e0 058f 	STS  _temp_voltage,R30
0005e1 93e0 0590 	STS  _temp_voltage+1,R30
                 ;
                 ;            putchar('>');
0005e3 940e 111e 	CALL SUBOPT_0x2F
                 ;
                 ;            delay_ms(500);
                 ;            //txSetVoltage(set_voltage);
                 ;
                 ;            main_screen_trigger = 1;
                 ;            current_mainscreen_flag = 1;
                 ;            Current_Screen = 0;
0005e5 940e 10a4 	CALL SUBOPT_0x1F
                 ;            set_flag = 1;
                 ;         }
                 ;         else
0005e7 c01e      	RJMP _0x7D
                 _0x79:
                 ;         {
                 ;            lcd_clear();
0005e8 940e 10f8 	CALL SUBOPT_0x28
                 ;            lcd_gotoxy(0,0);
                 ;            lcd_putsf("Set value should");
                +
0005ea e3ea     +LDI R30 , LOW ( 2 * _0x0 + ( 120 ) )
0005eb e0f1     +LDI R31 , HIGH ( 2 * _0x0 + ( 120 ) )
                 	__POINTW1FN _0x0,120
0005ec 940e 1104 	CALL SUBOPT_0x2B
                 ;            lcd_gotoxy(0,1);
0005ee 940e 1059 	CALL SUBOPT_0x13
                 ;            lcd_putsf("be between 110-");
                +
0005f0 e4eb     +LDI R30 , LOW ( 2 * _0x0 + ( 137 ) )
0005f1 e0f1     +LDI R31 , HIGH ( 2 * _0x0 + ( 137 ) )
                 	__POINTW1FN _0x0,137
0005f2 940e 1104 	CALL SUBOPT_0x2B
                 ;            lcd_gotoxy(0,2);
0005f4 940e 1129 	CALL SUBOPT_0x30
                 ;            lcd_putsf("135 volts");
                +
0005f6 e5eb     +LDI R30 , LOW ( 2 * _0x0 + ( 153 ) )
0005f7 e0f1     +LDI R31 , HIGH ( 2 * _0x0 + ( 153 ) )
                 	__POINTW1FN _0x0,153
0005f8 940e 1104 	CALL SUBOPT_0x2B
                 ;            temp_voltage = 000;
0005fa e0e0      	LDI  R30,LOW(0)
0005fb 93e0 058f 	STS  _temp_voltage,R30
0005fd 93e0 0590 	STS  _temp_voltage+1,R30
                 ;            Screen = 30;
0005ff e1ee      	LDI  R30,LOW(30)
000600 e0f0      	LDI  R31,HIGH(30)
000601 012f      	MOVW R4,R30
                 ;            flag = 11;
000602 940e 1111 	CALL SUBOPT_0x2D
                 ;            delay_ms(1000);
000604 940e 112c 	CALL SUBOPT_0x31
                 ;         }
                 _0x7D:
                 ;
                 ;        }
                 ;
                 ;    if (PIND.2 == 0)                                            //ESCAPE 4
                 _0x75:
000606 9982      	SBIC 0x10,2
000607 c00e      	RJMP _0x7E
                 ;       {
                 ;        while(PIND.2 == 0);
                 _0x7F:
000608 9b82      	SBIS 0x10,2
000609 cffe      	RJMP _0x7F
                 ;        flag = 11;
00060a 940e 1111 	CALL SUBOPT_0x2D
                 ;        if(Screen > 100)
00060c 940e 10ad 	CALL SUBOPT_0x20
00060e f41c      	BRGE _0x82
                 ;        {Screen = Screen/10;}
00060f 940e 10b2 	CALL SUBOPT_0x21
000611 c003      	RJMP _0x111
                 ;        else
                 _0x82:
                 ;        {Screen = (Screen/10)-1;}
000612 940e 10b2 	CALL SUBOPT_0x21
000614 9731      	SBIW R30,1
                 _0x111:
000615 012f      	MOVW R4,R30
                 ;        //flag = 1;
                 ;       }
                 ;}
                 _0x7E:
000616 c0ab      	RJMP _0x212000E
                 
                 	.DSEG
                 _0x7C:
000502           	.BYTE 0x10
                 ;
                 ;void input_current(int next)
                 ;{
                 
                 	.CSEG
                 _input_current:
                 ;
                 ;    int change = pow(10,(next-Pointer_horiz-1));
                 ;    pointer_display_horiz();
000617 940e 10b8 	CALL SUBOPT_0x22
                 ;	next -> Y+2
                 ;	change -> R16,R17
                 ;    delay_ms(100);
                 ;    if (PINE.7 == 0)                                            //UP     1
000619 990f      	SBIC 0x1,7
00061a c01a      	RJMP _0x84
                 ;       {
                 ;        while(PINE.7 == 0);
                 _0x85:
00061b 9b0f      	SBIS 0x1,7
00061c cffe      	RJMP _0x85
                 ;        if(change == 1)
00061d 940e 10d8 	CALL SUBOPT_0x23
00061f f431      	BRNE _0x88
                 ;        {temp_current = temp_current + (change);}
000620 01f8      	MOVW R30,R16
000621 940e 1132 	CALL SUBOPT_0x32
000623 0fea      	ADD  R30,R26
000624 1ffb      	ADC  R31,R27
000625 c005      	RJMP _0x112
                 ;        else
                 _0x88:
                 ;        {temp_current = temp_current + 1 + (change);}
000626 940e 1079 	CALL SUBOPT_0x18
000628 9631      	ADIW R30,1
000629 0fe0      	ADD  R30,R16
00062a 1ff1      	ADC  R31,R17
                 _0x112:
00062b 93e0 0591 	STS  _temp_current,R30
00062d 93f0 0592 	STS  _temp_current+1,R31
                 ;        temp_current = temp_current % 1000;
00062f 940e 1137 	CALL SUBOPT_0x33
000631 940e 113b 	CALL SUBOPT_0x34
                 ;        show_current();
000633 de98      	RCALL _show_current
                 ;        pointer_display_horiz();
000634 de47      	RCALL _pointer_display_horiz
                 ;       }
                 ;
                 ;    if (PINE.5 == 0)                                            //Next   2
                 _0x84:
000635 990d      	SBIC 0x1,5
000636 c004      	RJMP _0x8A
                 ;       {
                 ;        while(PINE.5 == 0);
                 _0x8B:
000637 9b0d      	SBIS 0x1,5
000638 cffe      	RJMP _0x8B
                 ;        Pointer_horiz++;
000639 940e 10ed 	CALL SUBOPT_0x27
                 ;
                 ;        Pointer_horiz = Pointer_horiz % next;
                 ;        pointer_display_horiz();
                 ;       }
                 ;
                 ;    if (PINB.3 == 0)                                             //ENTER 3
                 _0x8A:
00063b 99b3      	SBIC 0x16,3
00063c c075      	RJMP _0x8E
                 ;        {
                 ;         while(PINB.3 == 0);
                 _0x8F:
00063d 9bb3      	SBIS 0x16,3
00063e cffe      	RJMP _0x8F
                 ;         if(10 <= temp_current && temp_current <= 20)
00063f 940e 1079 	CALL SUBOPT_0x18
000641 973a      	SBIW R30,10
000642 f024      	BRLT _0x93
000643 940e 1132 	CALL SUBOPT_0x32
000645 9755      	SBIW R26,21
000646 f00c      	BRLT _0x94
                 _0x93:
000647 c04c      	RJMP _0x92
                 _0x94:
                 ;         {
                 ;            lcd_clear();
000648 940e 10f8 	CALL SUBOPT_0x28
                 ;            lcd_gotoxy(0,0);
                 ;            lcd_puts("Current set to:");
                +
00064a e1e2     +LDI R30 , LOW ( _0x95 + ( 0 ) )
00064b e0f5     +LDI R31 , HIGH ( _0x95 + ( 0 ) )
                 	__POINTW1MN _0x95,0
00064c 940e 10fb 	CALL SUBOPT_0x29
                 ;            lcd_gotoxy(3,1);
00064e e0e3      	LDI  R30,LOW(3)
00064f 940e 10ff 	CALL SUBOPT_0x2A
                 ;            lcd_putsf("A");
                +
000651 e7e5     +LDI R30 , LOW ( 2 * _0x0 + ( 179 ) )
000652 e0f1     +LDI R31 , HIGH ( 2 * _0x0 + ( 179 ) )
                 	__POINTW1FN _0x0,179
000653 940e 1104 	CALL SUBOPT_0x2B
                 ;            show_current();
000655 de76      	RCALL _show_current
                 ;            set_current = temp_current;
000656 940e 1079 	CALL SUBOPT_0x18
000658 940e 14c9 	CALL __CWD1
00065a 940e 1142 	CALL SUBOPT_0x35
                 ;            flag = 11;
00065c 940e 1111 	CALL SUBOPT_0x2D
                 ;            Screen = 30;
00065e e1ee      	LDI  R30,LOW(30)
00065f e0f0      	LDI  R31,HIGH(30)
000660 012f      	MOVW R4,R30
                 ;
                 ;          xmitString("<015-");
                +
000661 e7e7     +LDI R30 , LOW ( 2 * _0x0 + ( 181 ) )
000662 e0f1     +LDI R31 , HIGH ( 2 * _0x0 + ( 181 ) )
                 	__POINTW1FN _0x0,181
000663 940e 0fe0 	CALL SUBOPT_0x1
                 ;
                 ;            putchar(temp_current/1000 + 48);
000665 940e 1137 	CALL SUBOPT_0x33
000667 940e 1118 	CALL SUBOPT_0x2E
                 ;            temp_current %= 1000;
000669 940e 1137 	CALL SUBOPT_0x33
00066b 940e 113b 	CALL SUBOPT_0x34
                 ;            putchar(temp_current/100 + 48);
00066d 940e 1132 	CALL SUBOPT_0x32
00066f e6e4      	LDI  R30,LOW(100)
000670 e0f0      	LDI  R31,HIGH(100)
000671 940e 1118 	CALL SUBOPT_0x2E
                 ;            temp_current %= 100;
000673 940e 1132 	CALL SUBOPT_0x32
000675 e6e4      	LDI  R30,LOW(100)
000676 e0f0      	LDI  R31,HIGH(100)
000677 940e 113b 	CALL SUBOPT_0x34
                 ;            putchar(temp_current/10 + 48);
000679 940e 1132 	CALL SUBOPT_0x32
00067b e0ea      	LDI  R30,LOW(10)
00067c e0f0      	LDI  R31,HIGH(10)
00067d 940e 1118 	CALL SUBOPT_0x2E
                 ;            temp_current %= 10;
00067f 940e 1132 	CALL SUBOPT_0x32
000681 e0ea      	LDI  R30,LOW(10)
000682 e0f0      	LDI  R31,HIGH(10)
000683 940e 113b 	CALL SUBOPT_0x34
                 ;            putchar(temp_current + 48);
000685 91e0 0591 	LDS  R30,_temp_current
000687 5de0      	SUBI R30,-LOW(48)
000688 93ea      	ST   -Y,R30
000689 dd66      	RCALL _putchar
                 ;            temp_current = 0;
00068a e0e0      	LDI  R30,LOW(0)
00068b 93e0 0591 	STS  _temp_current,R30
00068d 93e0 0592 	STS  _temp_current+1,R30
                 ;
                 ;            putchar('>');
00068f 940e 111e 	CALL SUBOPT_0x2F
                 ;
                 ;            delay_ms(500);
                 ;
                 ;
                 ;            main_screen_trigger = 1;
                 ;            current_mainscreen_flag = 1;
                 ;            Current_Screen = 0;
000691 940e 10a4 	CALL SUBOPT_0x1F
                 ;            set_flag = 1;
                 ;         }
                 ;         else
000693 c01e      	RJMP _0x96
                 _0x92:
                 ;         {
                 ;            lcd_clear();
000694 940e 10f8 	CALL SUBOPT_0x28
                 ;            lcd_gotoxy(0,0);
                 ;            lcd_putsf("Set value should");
                +
000696 e3ea     +LDI R30 , LOW ( 2 * _0x0 + ( 120 ) )
000697 e0f1     +LDI R31 , HIGH ( 2 * _0x0 + ( 120 ) )
                 	__POINTW1FN _0x0,120
000698 940e 1104 	CALL SUBOPT_0x2B
                 ;            lcd_gotoxy(0,1);
00069a 940e 1059 	CALL SUBOPT_0x13
                 ;            lcd_putsf("be between 10-");
                +
00069c e7ed     +LDI R30 , LOW ( 2 * _0x0 + ( 187 ) )
00069d e0f1     +LDI R31 , HIGH ( 2 * _0x0 + ( 187 ) )
                 	__POINTW1FN _0x0,187
00069e 940e 1104 	CALL SUBOPT_0x2B
                 ;            lcd_gotoxy(0,2);
0006a0 940e 1129 	CALL SUBOPT_0x30
                 ;            lcd_putsf("20 amps");
                +
0006a2 e8ec     +LDI R30 , LOW ( 2 * _0x0 + ( 202 ) )
0006a3 e0f1     +LDI R31 , HIGH ( 2 * _0x0 + ( 202 ) )
                 	__POINTW1FN _0x0,202
0006a4 940e 1104 	CALL SUBOPT_0x2B
                 ;            temp_current = 000;
0006a6 e0e0      	LDI  R30,LOW(0)
0006a7 93e0 0591 	STS  _temp_current,R30
0006a9 93e0 0592 	STS  _temp_current+1,R30
                 ;            Screen = 30;
0006ab e1ee      	LDI  R30,LOW(30)
0006ac e0f0      	LDI  R31,HIGH(30)
0006ad 012f      	MOVW R4,R30
                 ;            flag = 11;
0006ae 940e 1111 	CALL SUBOPT_0x2D
                 ;            delay_ms(1000);
0006b0 940e 112c 	CALL SUBOPT_0x31
                 ;         }
                 _0x96:
                 ;        }
                 ;
                 ;    if (PIND.2 == 0)                                            //ESCAPE 4
                 _0x8E:
0006b2 9982      	SBIC 0x10,2
0006b3 c00e      	RJMP _0x97
                 ;       {
                 ;        while(PIND.2 == 0);
                 _0x98:
0006b4 9b82      	SBIS 0x10,2
0006b5 cffe      	RJMP _0x98
                 ;        flag = 11;
0006b6 940e 1111 	CALL SUBOPT_0x2D
                 ;        if(Screen > 100)
0006b8 940e 10ad 	CALL SUBOPT_0x20
0006ba f41c      	BRGE _0x9B
                 ;        {Screen = Screen/10;}
0006bb 940e 10b2 	CALL SUBOPT_0x21
0006bd c003      	RJMP _0x113
                 ;        else
                 _0x9B:
                 ;        {Screen = (Screen/10)-1;}
0006be 940e 10b2 	CALL SUBOPT_0x21
0006c0 9731      	SBIW R30,1
                 _0x113:
0006c1 012f      	MOVW R4,R30
                 ;        //flag = 1;
                 ;       }
                 ;
                 ;
                 ;}
                 _0x97:
                 _0x212000E:
0006c2 8119      	LDD  R17,Y+1
0006c3 8108      	LDD  R16,Y+0
0006c4 9624      	ADIW R28,4
0006c5 9508      	RET
                 
                 	.DSEG
                 _0x95:
000512           	.BYTE 0x10
                 ;
                 ;
                 ;void input_time()
                 ;{
                 
                 	.CSEG
                 _input_time:
                 ;    int pt;
                 ;    pointer_display_horiz();
0006c6 940e 114b 	CALL SUBOPT_0x36
                 ;	pt -> R16,R17
                 ;    delay_ms(100);
                 ;    pt = Pointer_horiz;
0006c8 0184      	MOVW R16,R8
                 ;
                 ;    if(PINE.7 == 0){                    //Increment
0006c9 990f      	SBIC 0x1,7
0006ca c031      	RJMP _0x9D
                 ;        while(PINE.7 == 0);
                 _0x9E:
0006cb 9b0f      	SBIS 0x1,7
0006cc cffe      	RJMP _0x9E
                 ;        if(pt == 1)
0006cd 940e 10d8 	CALL SUBOPT_0x23
0006cf f459      	BRNE _0xA1
                 ;        {
                 ;            if(temp_hour == 23)
0006d0 91a0 05c1 	LDS  R26,_temp_hour
0006d2 31a7      	CPI  R26,LOW(0x17)
0006d3 f411      	BRNE _0xA2
                 ;            {temp_hour = 0;}
0006d4 e0e0      	LDI  R30,LOW(0)
0006d5 c003      	RJMP _0x114
                 ;            else
                 _0xA2:
                 ;            {temp_hour++;}
0006d6 91e0 05c1 	LDS  R30,_temp_hour
0006d8 5fef      	SUBI R30,-LOW(1)
                 _0x114:
0006d9 93e0 05c1 	STS  _temp_hour,R30
                 ;        }
                 ;        if(pt == 4 )
                 _0xA1:
0006db e0e4      	LDI  R30,LOW(4)
0006dc e0f0      	LDI  R31,HIGH(4)
0006dd 17e0      	CP   R30,R16
0006de 07f1      	CPC  R31,R17
0006df f459      	BRNE _0xA4
                 ;        {
                 ;            if(temp_minute == 59)
0006e0 91a0 05c2 	LDS  R26,_temp_minute
0006e2 33ab      	CPI  R26,LOW(0x3B)
0006e3 f411      	BRNE _0xA5
                 ;            {temp_minute = 0;}
0006e4 e0e0      	LDI  R30,LOW(0)
0006e5 c003      	RJMP _0x115
                 ;            else
                 _0xA5:
                 ;            {temp_minute++;}
0006e6 91e0 05c2 	LDS  R30,_temp_minute
0006e8 5fef      	SUBI R30,-LOW(1)
                 _0x115:
0006e9 93e0 05c2 	STS  _temp_minute,R30
                 ;        }
                 ;        if(pt == 7)
                 _0xA4:
0006eb e0e7      	LDI  R30,LOW(7)
0006ec e0f0      	LDI  R31,HIGH(7)
0006ed 17e0      	CP   R30,R16
0006ee 07f1      	CPC  R31,R17
0006ef f459      	BRNE _0xA7
                 ;        {
                 ;            if(temp_second == 59)
0006f0 91a0 05c3 	LDS  R26,_temp_second
0006f2 33ab      	CPI  R26,LOW(0x3B)
0006f3 f411      	BRNE _0xA8
                 ;            {temp_second = 0;}
0006f4 e0e0      	LDI  R30,LOW(0)
0006f5 c003      	RJMP _0x116
                 ;            else
                 _0xA8:
                 ;            {temp_second++;}
0006f6 91e0 05c3 	LDS  R30,_temp_second
0006f8 5fef      	SUBI R30,-LOW(1)
                 _0x116:
0006f9 93e0 05c3 	STS  _temp_second,R30
                 ;        }
                 ;
                 ;        show_time();
                 _0xA7:
0006fb dddf      	RCALL _show_time
                 ;    }
                 ;
                 ;    if(PINE.5 == 0){                    //Next
                 _0x9D:
0006fc 990d      	SBIC 0x1,5
0006fd c004      	RJMP _0xAA
                 ;        while(PINE.5 == 0);
                 _0xAB:
0006fe 9b0d      	SBIS 0x1,5
0006ff cffe      	RJMP _0xAB
                 ;        Pointer_horiz += 3;
000700 940e 1150 	CALL SUBOPT_0x37
                 ;
                 ;        Pointer_horiz = Pointer_horiz % 9;
                 ;        pointer_display_horiz();
                 ;
                 ;    }
                 ;
                 ;    if(PINB.3 == 0){
                 _0xAA:
000702 99b3      	SBIC 0x16,3
000703 c027      	RJMP _0xAE
                 ;        while(PINB.3 == 0);
                 _0xAF:
000704 9bb3      	SBIS 0x16,3
000705 cffe      	RJMP _0xAF
                 ;        hour = temp_hour;
000706 91e0 05c1 	LDS  R30,_temp_hour
000708 93e0 05b9 	STS  _hour,R30
                 ;        minute = temp_minute;
00070a 91e0 05c2 	LDS  R30,_temp_minute
00070c 93e0 05ba 	STS  _minute,R30
                 ;        second = temp_second;
00070e 91e0 05c3 	LDS  R30,_temp_second
000710 93e0 05bb 	STS  _second,R30
                 ;
                 ;        rtc_set_time(hour,minute,second);
000712 91e0 05b9 	LDS  R30,_hour
000714 93ea      	ST   -Y,R30
000715 91e0 05ba 	LDS  R30,_minute
000717 93ea      	ST   -Y,R30
000718 91e0 05bb 	LDS  R30,_second
00071a 93ea      	ST   -Y,R30
00071b 940e 0f93 	CALL _rtc_set_time
                 ;
                 ;        lcd_clear();
00071d 940e 115b 	CALL SUBOPT_0x38
                 ;        lcd_gotoxy(2,0);
                 ;        lcd_puts("Time Set To:");
                +
00071f e2e2     +LDI R30 , LOW ( _0xB2 + ( 0 ) )
000720 e0f5     +LDI R31 , HIGH ( _0xB2 + ( 0 ) )
                 	__POINTW1MN _0xB2,0
000721 940e 10fb 	CALL SUBOPT_0x29
                 ;        show_time();
000723 ddb7      	RCALL _show_time
                 ;        delay_ms(1000);
000724 940e 112c 	CALL SUBOPT_0x31
                 ;        flag = 1;
000726 940e 1163 	CALL SUBOPT_0x39
                 ;        Screen = 31;
000728 e1ef      	LDI  R30,LOW(31)
000729 e0f0      	LDI  R31,HIGH(31)
00072a 012f      	MOVW R4,R30
                 ;    }
                 ;
                 ;    if(PIND.2 == 0){
                 _0xAE:
00072b 9982      	SBIC 0x10,2
00072c c00e      	RJMP _0xB3
                 ;        while(PIND.2 == 0);
                 _0xB4:
00072d 9b82      	SBIS 0x10,2
00072e cffe      	RJMP _0xB4
                 ;
                 ;        flag = 1;
00072f 940e 1163 	CALL SUBOPT_0x39
                 ;        if(Screen > 100)
000731 940e 10ad 	CALL SUBOPT_0x20
000733 f41c      	BRGE _0xB7
                 ;        {Screen = Screen/10;}
000734 940e 10b2 	CALL SUBOPT_0x21
000736 c003      	RJMP _0x117
                 ;        else
                 _0xB7:
                 ;        {Screen = (Screen/10)-1;}
000737 940e 10b2 	CALL SUBOPT_0x21
000739 9731      	SBIW R30,1
                 _0x117:
00073a 012f      	MOVW R4,R30
                 ;    }
                 ;
                 ;
                 ;}
                 _0xB3:
00073b c075      	RJMP _0x212000D
                 
                 	.DSEG
                 _0xB2:
000522           	.BYTE 0xD
                 ;
                 ;void input_date()
                 ;{
                 
                 	.CSEG
                 _input_date:
                 ;    int pt;
                 ;    pointer_display_horiz();
00073c 940e 114b 	CALL SUBOPT_0x36
                 ;	pt -> R16,R17
                 ;    delay_ms(100);
                 ;    pt = Pointer_horiz;
00073e 0184      	MOVW R16,R8
                 ;
                 ;    if(PINE.7 == 0){                    //Increment--1
00073f 990f      	SBIC 0x1,7
000740 c031      	RJMP _0xB9
                 ;        while(PINE.7 == 0);
                 _0xBA:
000741 9b0f      	SBIS 0x1,7
000742 cffe      	RJMP _0xBA
                 ;        if(pt == 1)
000743 940e 10d8 	CALL SUBOPT_0x23
000745 f459      	BRNE _0xBD
                 ;        {
                 ;            if(temp_date == 31)
000746 91a0 05c5 	LDS  R26,_temp_date
000748 31af      	CPI  R26,LOW(0x1F)
000749 f411      	BRNE _0xBE
                 ;            {temp_date = 0;}
00074a e0e0      	LDI  R30,LOW(0)
00074b c003      	RJMP _0x118
                 ;            else
                 _0xBE:
                 ;            {temp_date++;}
00074c 91e0 05c5 	LDS  R30,_temp_date
00074e 5fef      	SUBI R30,-LOW(1)
                 _0x118:
00074f 93e0 05c5 	STS  _temp_date,R30
                 ;        }
                 ;        if(pt == 4 )
                 _0xBD:
000751 e0e4      	LDI  R30,LOW(4)
000752 e0f0      	LDI  R31,HIGH(4)
000753 17e0      	CP   R30,R16
000754 07f1      	CPC  R31,R17
000755 f459      	BRNE _0xC0
                 ;        {
                 ;            if(temp_month == 12)
000756 91a0 05c6 	LDS  R26,_temp_month
000758 30ac      	CPI  R26,LOW(0xC)
000759 f411      	BRNE _0xC1
                 ;            {temp_month = 0;}
00075a e0e0      	LDI  R30,LOW(0)
00075b c003      	RJMP _0x119
                 ;            else
                 _0xC1:
                 ;            {temp_month++;}
00075c 91e0 05c6 	LDS  R30,_temp_month
00075e 5fef      	SUBI R30,-LOW(1)
                 _0x119:
00075f 93e0 05c6 	STS  _temp_month,R30
                 ;        }
                 ;        if(pt == 7)
                 _0xC0:
000761 e0e7      	LDI  R30,LOW(7)
000762 e0f0      	LDI  R31,HIGH(7)
000763 17e0      	CP   R30,R16
000764 07f1      	CPC  R31,R17
000765 f459      	BRNE _0xC3
                 ;        {
                 ;            if(temp_year == 50)
000766 91a0 05c7 	LDS  R26,_temp_year
000768 33a2      	CPI  R26,LOW(0x32)
000769 f411      	BRNE _0xC4
                 ;            {temp_year = 0;}
00076a e0e0      	LDI  R30,LOW(0)
00076b c003      	RJMP _0x11A
                 ;            else
                 _0xC4:
                 ;            {temp_year++;}
00076c 91e0 05c7 	LDS  R30,_temp_year
00076e 5fef      	SUBI R30,-LOW(1)
                 _0x11A:
00076f 93e0 05c7 	STS  _temp_year,R30
                 ;        }
                 ;
                 ;        show_date();
                 _0xC3:
000771 dd82      	RCALL _show_date
                 ;    }
                 ;
                 ;    if(PINE.5 == 0){                    //Next
                 _0xB9:
000772 990d      	SBIC 0x1,5
000773 c004      	RJMP _0xC6
                 ;        while(PINE.5 == 0);
                 _0xC7:
000774 9b0d      	SBIS 0x1,5
000775 cffe      	RJMP _0xC7
                 ;        Pointer_horiz += 3;
000776 940e 1150 	CALL SUBOPT_0x37
                 ;
                 ;        Pointer_horiz = Pointer_horiz % 9;
                 ;        pointer_display_horiz();
                 ;
                 ;    }
                 ;
                 ;    if(PINB.3 == 0){
                 _0xC6:
000778 99b3      	SBIC 0x16,3
000779 c027      	RJMP _0xCA
                 ;        while(PINB.3 == 0);
                 _0xCB:
00077a 9bb3      	SBIS 0x16,3
00077b cffe      	RJMP _0xCB
                 ;        date = temp_date;
00077c 91e0 05c5 	LDS  R30,_temp_date
00077e 93e0 05bc 	STS  _date,R30
                 ;        month = temp_month;
000780 91e0 05c6 	LDS  R30,_temp_month
000782 93e0 05bd 	STS  _month,R30
                 ;        year = temp_year;
000784 91e0 05c7 	LDS  R30,_temp_year
000786 93e0 05be 	STS  _year,R30
                 ;
                 ;        rtc_set_date(date,month,year);
000788 91e0 05bc 	LDS  R30,_date
00078a 93ea      	ST   -Y,R30
00078b 91e0 05bd 	LDS  R30,_month
00078d 93ea      	ST   -Y,R30
00078e 91e0 05be 	LDS  R30,_year
000790 93ea      	ST   -Y,R30
000791 940e 0faf 	CALL _rtc_set_date
                 ;
                 ;        lcd_clear();
000793 940e 115b 	CALL SUBOPT_0x38
                 ;        lcd_gotoxy(2,0);
                 ;        lcd_puts("Date Set To");
                +
000795 e2ef     +LDI R30 , LOW ( _0xCE + ( 0 ) )
000796 e0f5     +LDI R31 , HIGH ( _0xCE + ( 0 ) )
                 	__POINTW1MN _0xCE,0
000797 940e 10fb 	CALL SUBOPT_0x29
                 ;        show_date();
000799 dd5a      	RCALL _show_date
                 ;        delay_ms(1000);
00079a 940e 112c 	CALL SUBOPT_0x31
                 ;        flag = 1;
00079c 940e 1163 	CALL SUBOPT_0x39
                 ;        Screen = 31;
00079e e1ef      	LDI  R30,LOW(31)
00079f e0f0      	LDI  R31,HIGH(31)
0007a0 012f      	MOVW R4,R30
                 ;    }
                 ;
                 ;    if(PIND.2 == 0){
                 _0xCA:
0007a1 9982      	SBIC 0x10,2
0007a2 c00e      	RJMP _0xCF
                 ;        while(PIND.2 == 0);
                 _0xD0:
0007a3 9b82      	SBIS 0x10,2
0007a4 cffe      	RJMP _0xD0
                 ;
                 ;        flag = 1;
0007a5 940e 1163 	CALL SUBOPT_0x39
                 ;        if(Screen > 100)
0007a7 940e 10ad 	CALL SUBOPT_0x20
0007a9 f41c      	BRGE _0xD3
                 ;        {Screen = Screen/10;}
0007aa 940e 10b2 	CALL SUBOPT_0x21
0007ac c003      	RJMP _0x11B
                 ;        else
                 _0xD3:
                 ;        {Screen = (Screen/10)-1;}
0007ad 940e 10b2 	CALL SUBOPT_0x21
0007af 9731      	SBIW R30,1
                 _0x11B:
0007b0 012f      	MOVW R4,R30
                 ;    }
                 ;
                 ;
                 ;}
                 _0xCF:
                 _0x212000D:
0007b1 9109      	LD   R16,Y+
0007b2 9119      	LD   R17,Y+
0007b3 9508      	RET
                 
                 	.DSEG
                 _0xCE:
00052f           	.BYTE 0xC
                 ;
                 ;
                 ;
                 ;
                 ;void Screen1()
                 ; 0000 010F {
                 
                 	.CSEG
                 _Screen1:
                 ; 0000 0110     //Screen = 1;
                 ; 0000 0111     Pointer_horiz = 0;
0007b4 2488      	CLR  R8
0007b5 2499      	CLR  R9
                 ; 0000 0112     Pointer_vert = 0;
0007b6 24aa      	CLR  R10
0007b7 24bb      	CLR  R11
                 ; 0000 0113     lcd_clear();
0007b8 940e 0ee6 	CALL _lcd_clear
                 ; 0000 0114     lcd_gotoxy(0,1);
0007ba 940e 1059 	CALL SUBOPT_0x13
                 ; 0000 0115     lcd_puts("  HIGH WATTAGE  ");
                +
0007bc e3eb     +LDI R30 , LOW ( _0xD5 + ( 0 ) )
0007bd e0f5     +LDI R31 , HIGH ( _0xD5 + ( 0 ) )
                 	__POINTW1MN _0xD5,0
0007be 940e 10fb 	CALL SUBOPT_0x29
                 ; 0000 0116     lcd_gotoxy(0,2);
0007c0 940e 1129 	CALL SUBOPT_0x30
                 ; 0000 0117     lcd_puts(" BATTERY CHARGER");
                +
0007c2 e4ec     +LDI R30 , LOW ( _0xD5 + ( 17 ) )
0007c3 e0f5     +LDI R31 , HIGH ( _0xD5 + ( 17 ) )
                 	__POINTW1MN _0xD5,17
0007c4 940e 10fb 	CALL SUBOPT_0x29
                 ; 0000 0118     delay_ms(1000);
0007c6 940e 112c 	CALL SUBOPT_0x31
                 ; 0000 0119 
                 ; 0000 011A 
                 ; 0000 011B     // default current and voltage value sent to DSP at start
                 ; 0000 011C     set_voltage = 110;
                +
0007c8 e6ee     +LDI R30 , LOW ( 0x6E )
0007c9 e0f0     +LDI R31 , HIGH ( 0x6E )
0007ca e060     +LDI R22 , BYTE3 ( 0x6E )
0007cb e070     +LDI R23 , BYTE4 ( 0x6E )
                 	__GETD1N 0x6E
0007cc 940e 1108 	CALL SUBOPT_0x2C
                 ; 0000 011D     xmitString("<014-0110");
                +
0007ce ecef     +LDI R30 , LOW ( 2 * _0x0 + ( 269 ) )
0007cf e0f1     +LDI R31 , HIGH ( 2 * _0x0 + ( 269 ) )
                 	__POINTW1FN _0x0,269
0007d0 940e 0fe0 	CALL SUBOPT_0x1
                 ; 0000 011E 
                 ; 0000 011F     set_current = 10;
                +
0007d2 e0ea     +LDI R30 , LOW ( 0xA )
0007d3 e0f0     +LDI R31 , HIGH ( 0xA )
0007d4 e060     +LDI R22 , BYTE3 ( 0xA )
0007d5 e070     +LDI R23 , BYTE4 ( 0xA )
                 	__GETD1N 0xA
0007d6 940e 1142 	CALL SUBOPT_0x35
                 ; 0000 0120     xmitString("<015-0010");
                +
0007d8 ede9     +LDI R30 , LOW ( 2 * _0x0 + ( 279 ) )
0007d9 e0f1     +LDI R31 , HIGH ( 2 * _0x0 + ( 279 ) )
                 	__POINTW1FN _0x0,279
0007da 940e 0fe0 	CALL SUBOPT_0x1
                 ; 0000 0121 
                 ; 0000 0122     Screen = 2;
0007dc e0e2      	LDI  R30,LOW(2)
0007dd e0f0      	LDI  R31,HIGH(2)
0007de 012f      	MOVW R4,R30
                 ; 0000 0123     Current_Screen = 1;
0007df e0e1      	LDI  R30,LOW(1)
0007e0 e0f0      	LDI  R31,HIGH(1)
0007e1 013f      	MOVW R6,R30
                 ; 0000 0124     main_screen_trigger = 1;
0007e2 940e 109d 	CALL SUBOPT_0x1E
                 ; 0000 0125     current_mainscreen_flag = 1;
                 ; 0000 0126     lcd_clear();
0007e4 940e 0ee6 	CALL _lcd_clear
                 ; 0000 0127 }
0007e6 9508      	RET
                 
                 	.DSEG
                 _0xD5:
00053b           	.BYTE 0x22
                 ;
                 ;void Screen2()
                 ; 0000 012A {
                 
                 	.CSEG
                 _Screen2:
                 ; 0000 012B     lcd_clear();
0007e7 940e 116a 	CALL SUBOPT_0x3A
                 ; 0000 012C     //Screen = 2;
                 ; 0000 012D     Pointer_vert = 0;
                 ; 0000 012E     Pointer_horiz= 0;
                 ; 0000 012F 
                 ; 0000 0130         lcd_gotoxy(1,0);
                 ; 0000 0131         lcd_putsf("Set Parameters");
                +
0007e9 eee3     +LDI R30 , LOW ( 2 * _0x0 + ( 289 ) )
0007ea e0f1     +LDI R31 , HIGH ( 2 * _0x0 + ( 289 ) )
                 	__POINTW1FN _0x0,289
0007eb 940e 1104 	CALL SUBOPT_0x2B
                 ; 0000 0132         lcd_gotoxy(1,1);
0007ed e0e1      	LDI  R30,LOW(1)
0007ee 940e 10ff 	CALL SUBOPT_0x2A
                 ; 0000 0133         lcd_putsf("Set Time/Date");
                +
0007f0 efe2     +LDI R30 , LOW ( 2 * _0x0 + ( 304 ) )
0007f1 e0f1     +LDI R31 , HIGH ( 2 * _0x0 + ( 304 ) )
                 	__POINTW1FN _0x0,304
0007f2 940e 1104 	CALL SUBOPT_0x2B
                 ; 0000 0134         lcd_gotoxy(1,2);
0007f4 940e 103e 	CALL SUBOPT_0xE
                 ; 0000 0135         lcd_putsf("Display Time");
                +
0007f6 e0e0     +LDI R30 , LOW ( 2 * _0x0 + ( 318 ) )
0007f7 e0f2     +LDI R31 , HIGH ( 2 * _0x0 + ( 318 ) )
                 	__POINTW1FN _0x0,318
0007f8 940e 1104 	CALL SUBOPT_0x2B
                 ; 0000 0136 
                 ; 0000 0137 
                 ; 0000 0138         n = 3;
0007fa e0e3      	LDI  R30,LOW(3)
0007fb e0f0      	LDI  R31,HIGH(3)
0007fc 940e 1176 	CALL SUBOPT_0x3B
                 ; 0000 0139         Current_Screen = 2;
0007fe e0e2      	LDI  R30,LOW(2)
0007ff e0f0      	LDI  R31,HIGH(2)
000800 c09b      	RJMP _0x212000C
                 ; 0000 013A }
                 ;
                 ;
                 ;
                 ;void Screen30()
                 ; 0000 013F {
                 _Screen30:
                 ; 0000 0140     lcd_clear();
000801 940e 0ee6 	CALL _lcd_clear
                 ; 0000 0141     lcd_gotoxy(3,3);
000803 e0e3      	LDI  R30,LOW(3)
000804 940e 105f 	CALL SUBOPT_0x14
                 ; 0000 0142     lcd_putsf("PARAMETERS");
                +
000806 e0ed     +LDI R30 , LOW ( 2 * _0x0 + ( 331 ) )
000807 e0f2     +LDI R31 , HIGH ( 2 * _0x0 + ( 331 ) )
                 	__POINTW1FN _0x0,331
000808 940e 1104 	CALL SUBOPT_0x2B
                 ; 0000 0143     lcd_gotoxy(1,0);
00080a e0e1      	LDI  R30,LOW(1)
00080b 940e 117b 	CALL SUBOPT_0x3C
                 ; 0000 0144     lcd_putsf("Voltage (VOLTS)");
                +
00080d e1e8     +LDI R30 , LOW ( 2 * _0x0 + ( 342 ) )
00080e e0f2     +LDI R31 , HIGH ( 2 * _0x0 + ( 342 ) )
                 	__POINTW1FN _0x0,342
00080f 940e 1104 	CALL SUBOPT_0x2B
                 ; 0000 0145     lcd_gotoxy(1,1);
000811 e0e1      	LDI  R30,LOW(1)
000812 940e 10ff 	CALL SUBOPT_0x2A
                 ; 0000 0146     lcd_putsf("Current (AMPS)");
                +
000814 e2e8     +LDI R30 , LOW ( 2 * _0x0 + ( 358 ) )
000815 e0f2     +LDI R31 , HIGH ( 2 * _0x0 + ( 358 ) )
                 	__POINTW1FN _0x0,358
000816 940e 1104 	CALL SUBOPT_0x2B
                 ; 0000 0147     n = 2;
000818 e0e2      	LDI  R30,LOW(2)
000819 e0f0      	LDI  R31,HIGH(2)
00081a 940e 1176 	CALL SUBOPT_0x3B
                 ; 0000 0148     Current_Screen = 30;
00081c e1ee      	LDI  R30,LOW(30)
00081d e0f0      	LDI  R31,HIGH(30)
00081e c07d      	RJMP _0x212000C
                 ; 0000 0149 }
                 ;
                 ;void Screen300()      //SET VOLTAGE
                 ; 0000 014C {
                 _Screen300:
                 ; 0000 014D     lcd_clear();
00081f 940e 10f8 	CALL SUBOPT_0x28
                 ; 0000 014E     lcd_gotoxy(0,0);
                 ; 0000 014F     lcd_putsf("Set voltage:");
                +
000821 e3e7     +LDI R30 , LOW ( 2 * _0x0 + ( 373 ) )
000822 e0f2     +LDI R31 , HIGH ( 2 * _0x0 + ( 373 ) )
                 	__POINTW1FN _0x0,373
000823 940e 1104 	CALL SUBOPT_0x2B
                 ; 0000 0150     show_volt();
000825 dc9b      	RCALL _show_volt
                 ; 0000 0151     while(flag != 11)
                 _0xD6:
000826 91a0 05a9 	LDS  R26,_flag
000828 91b0 05aa 	LDS  R27,_flag+1
00082a 971b      	SBIW R26,11
00082b f021      	BREQ _0xD8
                 ; 0000 0152     {
                 ; 0000 0153         input_volt(3);
00082c 940e 1180 	CALL SUBOPT_0x3D
00082e dd38      	RCALL _input_volt
                 ; 0000 0154     }
00082f cff6      	RJMP _0xD6
                 _0xD8:
                 ; 0000 0155     flag = 0;
000830 940e 1185 	CALL SUBOPT_0x3E
                 ; 0000 0156     Current_Screen = 300;
000832 e2ec      	LDI  R30,LOW(300)
000833 e0f1      	LDI  R31,HIGH(300)
000834 c067      	RJMP _0x212000C
                 ; 0000 0157 }
                 ;
                 ;void Screen301()     //SET CURRENT
                 ; 0000 015A {
                 _Screen301:
                 ; 0000 015B 
                 ; 0000 015C     lcd_clear();
000835 940e 10f8 	CALL SUBOPT_0x28
                 ; 0000 015D     lcd_gotoxy(0,0);
                 ; 0000 015E     lcd_putsf("Set current:");
                +
000837 e4e4     +LDI R30 , LOW ( 2 * _0x0 + ( 386 ) )
000838 e0f2     +LDI R31 , HIGH ( 2 * _0x0 + ( 386 ) )
                 	__POINTW1FN _0x0,386
000839 940e 1104 	CALL SUBOPT_0x2B
                 ; 0000 015F     show_current();
00083b dc90      	RCALL _show_current
                 ; 0000 0160     while(flag != 11)
                 _0xD9:
00083c 940e 118b 	CALL SUBOPT_0x3F
00083e 971b      	SBIW R26,11
00083f f031      	BREQ _0xDB
                 ; 0000 0161     {
                 ; 0000 0162         input_current(2);
000840 e0e2      	LDI  R30,LOW(2)
000841 e0f0      	LDI  R31,HIGH(2)
000842 93fa      	ST   -Y,R31
000843 93ea      	ST   -Y,R30
000844 ddd2      	RCALL _input_current
                 ; 0000 0163     }
000845 cff6      	RJMP _0xD9
                 _0xDB:
                 ; 0000 0164     flag = 0;
000846 940e 1185 	CALL SUBOPT_0x3E
                 ; 0000 0165     Current_Screen = 301;
000848 e2ed      	LDI  R30,LOW(301)
000849 e0f1      	LDI  R31,HIGH(301)
00084a c051      	RJMP _0x212000C
                 ; 0000 0166 }
                 ;
                 ;void Screen31()  //Set Time and Date
                 ; 0000 0169 {
                 _Screen31:
                 ; 0000 016A     lcd_clear();
00084b 940e 116a 	CALL SUBOPT_0x3A
                 ; 0000 016B     Pointer_vert = 0;
                 ; 0000 016C     Pointer_horiz= 0;
                 ; 0000 016D 
                 ; 0000 016E     lcd_gotoxy(1,0);
                 ; 0000 016F     lcd_putsf("Set Time");
                +
00084d e5e1     +LDI R30 , LOW ( 2 * _0x0 + ( 399 ) )
00084e e0f2     +LDI R31 , HIGH ( 2 * _0x0 + ( 399 ) )
                 	__POINTW1FN _0x0,399
00084f 940e 1104 	CALL SUBOPT_0x2B
                 ; 0000 0170     lcd_gotoxy(1,1);
000851 e0e1      	LDI  R30,LOW(1)
000852 940e 10ff 	CALL SUBOPT_0x2A
                 ; 0000 0171     lcd_putsf("Set Date");
                +
000854 e5ea     +LDI R30 , LOW ( 2 * _0x0 + ( 408 ) )
000855 e0f2     +LDI R31 , HIGH ( 2 * _0x0 + ( 408 ) )
                 	__POINTW1FN _0x0,408
000856 940e 1104 	CALL SUBOPT_0x2B
                 ; 0000 0172     lcd_gotoxy(2,3);
000858 e0e2      	LDI  R30,LOW(2)
000859 940e 105f 	CALL SUBOPT_0x14
                 ; 0000 0173     lcd_putsf("TIME AND DATE");
                +
00085b e6e3     +LDI R30 , LOW ( 2 * _0x0 + ( 417 ) )
00085c e0f2     +LDI R31 , HIGH ( 2 * _0x0 + ( 417 ) )
                 	__POINTW1FN _0x0,417
00085d 940e 1104 	CALL SUBOPT_0x2B
                 ; 0000 0174 
                 ; 0000 0175     n = 2;
00085f e0e2      	LDI  R30,LOW(2)
000860 e0f0      	LDI  R31,HIGH(2)
000861 940e 1176 	CALL SUBOPT_0x3B
                 ; 0000 0176     Current_Screen = 31;
000863 e1ef      	LDI  R30,LOW(31)
000864 e0f0      	LDI  R31,HIGH(31)
000865 c036      	RJMP _0x212000C
                 ; 0000 0177 }
                 ;
                 ;void Screen310()
                 ; 0000 017A {
                 _Screen310:
                 ; 0000 017B     lcd_clear();
000866 940e 0ee6 	CALL _lcd_clear
                 ; 0000 017C     temp_hour = 0;
000868 e0e0      	LDI  R30,LOW(0)
000869 93e0 05c1 	STS  _temp_hour,R30
                 ; 0000 017D     temp_minute = 0;
00086b 93e0 05c2 	STS  _temp_minute,R30
                 ; 0000 017E     temp_second = 0;
00086d 93e0 05c3 	STS  _temp_second,R30
                 ; 0000 017F     Pointer_horiz = 1;
00086f 940e 1190 	CALL SUBOPT_0x40
                 ; 0000 0180     lcd_gotoxy(6,0);
                 ; 0000 0181     lcd_putsf("TIME");
                +
000871 e7e1     +LDI R30 , LOW ( 2 * _0x0 + ( 431 ) )
000872 e0f2     +LDI R31 , HIGH ( 2 * _0x0 + ( 431 ) )
                 	__POINTW1FN _0x0,431
000873 940e 1104 	CALL SUBOPT_0x2B
                 ; 0000 0182     show_time();
000875 dc65      	RCALL _show_time
                 ; 0000 0183     while(flag != 1)
                 _0xDC:
000876 940e 118b 	CALL SUBOPT_0x3F
000878 9711      	SBIW R26,1
000879 f011      	BREQ _0xDE
                 ; 0000 0184     {
                 ; 0000 0185         input_time();
00087a de4b      	RCALL _input_time
                 ; 0000 0186     }
00087b cffa      	RJMP _0xDC
                 _0xDE:
                 ; 0000 0187     flag = 0;
00087c 940e 1185 	CALL SUBOPT_0x3E
                 ; 0000 0188     Current_Screen = 310;
00087e e3e6      	LDI  R30,LOW(310)
00087f e0f1      	LDI  R31,HIGH(310)
000880 c01b      	RJMP _0x212000C
                 ; 0000 0189 }
                 ;
                 ;void Screen311()
                 ; 0000 018C {
                 _Screen311:
                 ; 0000 018D     lcd_clear();
000881 940e 0ee6 	CALL _lcd_clear
                 ; 0000 018E     temp_date = 0;
000883 e0e0      	LDI  R30,LOW(0)
000884 93e0 05c5 	STS  _temp_date,R30
                 ; 0000 018F     temp_month = 0;
000886 93e0 05c6 	STS  _temp_month,R30
                 ; 0000 0190     temp_year = 20;
000888 e1e4      	LDI  R30,LOW(20)
000889 93e0 05c7 	STS  _temp_year,R30
                 ; 0000 0191     Pointer_horiz = 1;
00088b 940e 1190 	CALL SUBOPT_0x40
                 ; 0000 0192     lcd_gotoxy(6,0);
                 ; 0000 0193     lcd_putsf("DATE");
                +
00088d e6ec     +LDI R30 , LOW ( 2 * _0x0 + ( 426 ) )
00088e e0f2     +LDI R31 , HIGH ( 2 * _0x0 + ( 426 ) )
                 	__POINTW1FN _0x0,426
00088f 940e 1104 	CALL SUBOPT_0x2B
                 ; 0000 0194     show_date();
000891 dc62      	RCALL _show_date
                 ; 0000 0195     while(flag != 1)
                 _0xDF:
000892 940e 118b 	CALL SUBOPT_0x3F
000894 9711      	SBIW R26,1
000895 f011      	BREQ _0xE1
                 ; 0000 0196     {
                 ; 0000 0197         input_date();
000896 dea5      	RCALL _input_date
                 ; 0000 0198     }
000897 cffa      	RJMP _0xDF
                 _0xE1:
                 ; 0000 0199     flag = 0;
000898 940e 1185 	CALL SUBOPT_0x3E
                 ; 0000 019A     Current_Screen = 311;
00089a e3e7      	LDI  R30,LOW(311)
00089b e0f1      	LDI  R31,HIGH(311)
                 _0x212000C:
00089c 013f      	MOVW R6,R30
                 ; 0000 019B }
00089d 9508      	RET
                 ;
                 ;void Screen32()
                 ; 0000 019E {
                 _Screen32:
                 ; 0000 019F     lcd_clear();
00089e 940e 0ee6 	CALL _lcd_clear
                 ; 0000 01A0     Pointer_vert = 0;
0008a0 24aa      	CLR  R10
0008a1 24bb      	CLR  R11
                 ; 0000 01A1     Pointer_horiz= 0;
0008a2 2488      	CLR  R8
0008a3 2499      	CLR  R9
                 ; 0000 01A2 
                 ; 0000 01A3     while(PIND.2 != 0)
                 _0xE2:
0008a4 9b82      	SBIS 0x10,2
0008a5 c03e      	RJMP _0xE4
                 ; 0000 01A4     {
                 ; 0000 01A5     rtc_get_time(&hour,&minute,&second);
0008a6 940e 1195 	CALL SUBOPT_0x41
                 ; 0000 01A6     lcd_gotoxy(0,0);
                 ; 0000 01A7     lcd_puts("Time:");
                +
0008a8 e5ed     +LDI R30 , LOW ( _0xE5 + ( 0 ) )
0008a9 e0f5     +LDI R31 , HIGH ( _0xE5 + ( 0 ) )
                 	__POINTW1MN _0xE5,0
0008aa 940e 10fb 	CALL SUBOPT_0x29
                 ; 0000 01A8     sprintf(disp_time,"%02d:%02d:%02d",hour,minute,second);
0008ac ebef      	LDI  R30,LOW(_disp_time)
0008ad e0f5      	LDI  R31,HIGH(_disp_time)
0008ae 940e 107e 	CALL SUBOPT_0x19
0008b0 91e0 05b9 	LDS  R30,_hour
0008b2 940e 1085 	CALL SUBOPT_0x1A
0008b4 91e0 05ba 	LDS  R30,_minute
0008b6 940e 1085 	CALL SUBOPT_0x1A
0008b8 91e0 05bb 	LDS  R30,_second
0008ba 940e 1085 	CALL SUBOPT_0x1A
0008bc 940e 11a4 	CALL SUBOPT_0x42
                 ; 0000 01A9     lcd_gotoxy(6,0);
0008be 940e 117b 	CALL SUBOPT_0x3C
                 ; 0000 01AA     lcd_puts(disp_time);
0008c0 ebef      	LDI  R30,LOW(_disp_time)
0008c1 e0f5      	LDI  R31,HIGH(_disp_time)
0008c2 940e 10fb 	CALL SUBOPT_0x29
                 ; 0000 01AB 
                 ; 0000 01AC     rtc_get_date(&date,&month,&year);
0008c4 940e 11aa 	CALL SUBOPT_0x43
                 ; 0000 01AD     lcd_gotoxy(0,2);
                 ; 0000 01AE     lcd_puts("Date:");
                +
0008c6 e6e3     +LDI R30 , LOW ( _0xE5 + ( 6 ) )
0008c7 e0f5     +LDI R31 , HIGH ( _0xE5 + ( 6 ) )
                 	__POINTW1MN _0xE5,6
0008c8 940e 10fb 	CALL SUBOPT_0x29
                 ; 0000 01AF     sprintf(disp_date,"%02d/%02d/%02d",date,month,year);
0008ca ece0      	LDI  R30,LOW(_disp_date)
0008cb e0f5      	LDI  R31,HIGH(_disp_date)
0008cc 940e 1090 	CALL SUBOPT_0x1C
0008ce 91e0 05bc 	LDS  R30,_date
0008d0 940e 1085 	CALL SUBOPT_0x1A
0008d2 91e0 05bd 	LDS  R30,_month
0008d4 940e 1085 	CALL SUBOPT_0x1A
0008d6 91e0 05be 	LDS  R30,_year
0008d8 940e 1085 	CALL SUBOPT_0x1A
0008da 940e 11a4 	CALL SUBOPT_0x42
                 ; 0000 01B0     lcd_gotoxy(6,2);
0008dc 93ea      	ST   -Y,R30
0008dd 940e 1050 	CALL SUBOPT_0x11
                 ; 0000 01B1     lcd_puts(disp_date);
0008df ece0      	LDI  R30,LOW(_disp_date)
0008e0 e0f5      	LDI  R31,HIGH(_disp_date)
0008e1 940e 10fb 	CALL SUBOPT_0x29
                 ; 0000 01B2     }
0008e3 cfc0      	RJMP _0xE2
                 _0xE4:
                 ; 0000 01B3 
                 ; 0000 01B4     Current_Screen = 32;
0008e4 e2e0      	LDI  R30,LOW(32)
0008e5 e0f0      	LDI  R31,HIGH(32)
0008e6 013f      	MOVW R6,R30
                 ; 0000 01B5     Screen = 2;
0008e7 e0e2      	LDI  R30,LOW(2)
0008e8 e0f0      	LDI  R31,HIGH(2)
0008e9 012f      	MOVW R4,R30
                 ; 0000 01B6 }
0008ea 9508      	RET
                 
                 	.DSEG
                 _0xE5:
00055d           	.BYTE 0xC
                 ;
                 ;void Main_Screen()
                 ; 0000 01B9 {
                 
                 	.CSEG
                 _Main_Screen:
                 ; 0000 01BA     lcd_clear();
0008eb 940e 10f8 	CALL SUBOPT_0x28
                 ; 0000 01BB 
                 ; 0000 01BC     lcd_gotoxy(0,0);
                 ; 0000 01BD     lcd_putsf("SV:");
                +
0008ed e8e2     +LDI R30 , LOW ( 2 * _0x0 + ( 448 ) )
0008ee e0f2     +LDI R31 , HIGH ( 2 * _0x0 + ( 448 ) )
                 	__POINTW1FN _0x0,448
0008ef 940e 1104 	CALL SUBOPT_0x2B
                 ; 0000 01BE 
                 ; 0000 01BF     lcd_gotoxy(8,0);
0008f1 e0e8      	LDI  R30,LOW(8)
0008f2 940e 117b 	CALL SUBOPT_0x3C
                 ; 0000 01C0     lcd_putsf("SBC:");
                +
0008f4 e8e6     +LDI R30 , LOW ( 2 * _0x0 + ( 452 ) )
0008f5 e0f2     +LDI R31 , HIGH ( 2 * _0x0 + ( 452 ) )
                 	__POINTW1FN _0x0,452
0008f6 940e 1104 	CALL SUBOPT_0x2B
                 ; 0000 01C1 
                 ; 0000 01C2     lcd_gotoxy(0,1);
0008f8 940e 1059 	CALL SUBOPT_0x13
                 ; 0000 01C3     lcd_putsf("AV:");
                +
0008fa e8eb     +LDI R30 , LOW ( 2 * _0x0 + ( 457 ) )
0008fb e0f2     +LDI R31 , HIGH ( 2 * _0x0 + ( 457 ) )
                 	__POINTW1FN _0x0,457
0008fc 940e 1104 	CALL SUBOPT_0x2B
                 ; 0000 01C4 
                 ; 0000 01C5     lcd_gotoxy(8,1);
0008fe e0e8      	LDI  R30,LOW(8)
0008ff 940e 10ff 	CALL SUBOPT_0x2A
                 ; 0000 01C6     lcd_putsf("ABC:");
                +
000901 e8ef     +LDI R30 , LOW ( 2 * _0x0 + ( 461 ) )
000902 e0f2     +LDI R31 , HIGH ( 2 * _0x0 + ( 461 ) )
                 	__POINTW1FN _0x0,461
000903 940e 1104 	CALL SUBOPT_0x2B
                 ; 0000 01C7 
                 ; 0000 01C8     lcd_gotoxy(0,2);
000905 940e 1129 	CALL SUBOPT_0x30
                 ; 0000 01C9     lcd_putsf("AIV:");
                +
000907 e9e4     +LDI R30 , LOW ( 2 * _0x0 + ( 466 ) )
000908 e0f2     +LDI R31 , HIGH ( 2 * _0x0 + ( 466 ) )
                 	__POINTW1FN _0x0,466
000909 940e 1104 	CALL SUBOPT_0x2B
                 ; 0000 01CA 
                 ; 0000 01CB     lcd_gotoxy(8,2);
00090b e0e8      	LDI  R30,LOW(8)
00090c 93ea      	ST   -Y,R30
00090d 940e 1050 	CALL SUBOPT_0x11
                 ; 0000 01CC     lcd_putsf("AOC:");
                +
00090f e9e9     +LDI R30 , LOW ( 2 * _0x0 + ( 471 ) )
000910 e0f2     +LDI R31 , HIGH ( 2 * _0x0 + ( 471 ) )
                 	__POINTW1FN _0x0,471
000911 940e 1104 	CALL SUBOPT_0x2B
                 ; 0000 01CD 
                 ; 0000 01CE     lcd_gotoxy(3,0);
000913 e0e3      	LDI  R30,LOW(3)
000914 940e 117b 	CALL SUBOPT_0x3C
                 ; 0000 01CF     sprintf(disp_set_voltage,"%03d",set_voltage);
000916 eee1      	LDI  R30,LOW(_disp_set_voltage)
000917 e0f5      	LDI  R31,HIGH(_disp_set_voltage)
000918 940e 1064 	CALL SUBOPT_0x15
00091a 91e0 0593 	LDS  R30,_set_voltage
00091c 91f0 0594 	LDS  R31,_set_voltage+1
00091e 9160 0595 	LDS  R22,_set_voltage+2
000920 9170 0596 	LDS  R23,_set_voltage+3
000922 940e 11b9 	CALL SUBOPT_0x44
                 ; 0000 01D0     lcd_puts(disp_set_voltage);
000924 eee1      	LDI  R30,LOW(_disp_set_voltage)
000925 e0f5      	LDI  R31,HIGH(_disp_set_voltage)
000926 940e 10fb 	CALL SUBOPT_0x29
                 ; 0000 01D1 
                 ; 0000 01D2     lcd_gotoxy(12,0);
000928 e0ec      	LDI  R30,LOW(12)
000929 940e 117b 	CALL SUBOPT_0x3C
                 ; 0000 01D3     sprintf(disp_set_btcurrent,"%03d",set_current);                           //12220
00092b eee4      	LDI  R30,LOW(_disp_set_btcurrent)
00092c e0f5      	LDI  R31,HIGH(_disp_set_btcurrent)
00092d 940e 1064 	CALL SUBOPT_0x15
00092f 91e0 0597 	LDS  R30,_set_current
000931 91f0 0598 	LDS  R31,_set_current+1
000933 9160 0599 	LDS  R22,_set_current+2
000935 9170 059a 	LDS  R23,_set_current+3
000937 940e 11b9 	CALL SUBOPT_0x44
                 ; 0000 01D4     // sprintf(disp_set_btcurrent,"%03d",set_current);
                 ; 0000 01D5     lcd_puts(disp_set_btcurrent);
000939 eee4      	LDI  R30,LOW(_disp_set_btcurrent)
00093a e0f5      	LDI  R31,HIGH(_disp_set_btcurrent)
                 _0x212000B:
00093b 93fa      	ST   -Y,R31
00093c 93ea      	ST   -Y,R30
00093d 940e 0f1e 	CALL _lcd_puts
                 ; 0000 01D6 
                 ; 0000 01D7    // current_mainscreen_flag = 0;
                 ; 0000 01D8 
                 ; 0000 01D9 
                 ; 0000 01DA 
                 ; 0000 01DB 
                 ; 0000 01DC }
00093f 9508      	RET
                 ;
                 ;void Screen_sel()
                 ; 0000 01DF {
                 _Screen_sel:
                 ; 0000 01E0 
                 ; 0000 01E1     if (Screen == 1)
000940 e0e1      	LDI  R30,LOW(1)
000941 e0f0      	LDI  R31,HIGH(1)
000942 15e4      	CP   R30,R4
000943 05f5      	CPC  R31,R5
000944 f409      	BRNE _0xE6
                 ; 0000 01E2     {
                 ; 0000 01E3         Screen1();
000945 de6e      	RCALL _Screen1
                 ; 0000 01E4     }
                 ; 0000 01E5     if (Screen == 2)
                 _0xE6:
000946 e0e2      	LDI  R30,LOW(2)
000947 e0f0      	LDI  R31,HIGH(2)
000948 15e4      	CP   R30,R4
000949 05f5      	CPC  R31,R5
00094a f409      	BRNE _0xE7
                 ; 0000 01E6     {
                 ; 0000 01E7         Screen2();
00094b de9b      	RCALL _Screen2
                 ; 0000 01E8     }
                 ; 0000 01E9     if (Screen == 30)
                 _0xE7:
00094c e1ee      	LDI  R30,LOW(30)
00094d e0f0      	LDI  R31,HIGH(30)
00094e 15e4      	CP   R30,R4
00094f 05f5      	CPC  R31,R5
000950 f409      	BRNE _0xE8
                 ; 0000 01EA     {
                 ; 0000 01EB         Screen30();
000951 deaf      	RCALL _Screen30
                 ; 0000 01EC     }
                 ; 0000 01ED     if (Screen == 300)
                 _0xE8:
000952 e2ec      	LDI  R30,LOW(300)
000953 e0f1      	LDI  R31,HIGH(300)
000954 15e4      	CP   R30,R4
000955 05f5      	CPC  R31,R5
000956 f409      	BRNE _0xE9
                 ; 0000 01EE     {
                 ; 0000 01EF         Screen300();
000957 dec7      	RCALL _Screen300
                 ; 0000 01F0     }
                 ; 0000 01F1     if (Screen == 301)
                 _0xE9:
000958 e2ed      	LDI  R30,LOW(301)
000959 e0f1      	LDI  R31,HIGH(301)
00095a 15e4      	CP   R30,R4
00095b 05f5      	CPC  R31,R5
00095c f409      	BRNE _0xEA
                 ; 0000 01F2     {
                 ; 0000 01F3         Screen301();
00095d ded7      	RCALL _Screen301
                 ; 0000 01F4     }
                 ; 0000 01F5     if (Screen == 31)
                 _0xEA:
00095e e1ef      	LDI  R30,LOW(31)
00095f e0f0      	LDI  R31,HIGH(31)
000960 15e4      	CP   R30,R4
000961 05f5      	CPC  R31,R5
000962 f409      	BRNE _0xEB
                 ; 0000 01F6     {
                 ; 0000 01F7         Screen31();
000963 dee7      	RCALL _Screen31
                 ; 0000 01F8     }
                 ; 0000 01F9     if (Screen == 310)
                 _0xEB:
000964 e3e6      	LDI  R30,LOW(310)
000965 e0f1      	LDI  R31,HIGH(310)
000966 15e4      	CP   R30,R4
000967 05f5      	CPC  R31,R5
000968 f409      	BRNE _0xEC
                 ; 0000 01FA     {
                 ; 0000 01FB         Screen310();
000969 defc      	RCALL _Screen310
                 ; 0000 01FC     }
                 ; 0000 01FD     if (Screen == 311)
                 _0xEC:
00096a e3e7      	LDI  R30,LOW(311)
00096b e0f1      	LDI  R31,HIGH(311)
00096c 15e4      	CP   R30,R4
00096d 05f5      	CPC  R31,R5
00096e f409      	BRNE _0xED
                 ; 0000 01FE     {
                 ; 0000 01FF         Screen311();
00096f df11      	RCALL _Screen311
                 ; 0000 0200     }
                 ; 0000 0201     if (Screen == 32)
                 _0xED:
000970 e2e0      	LDI  R30,LOW(32)
000971 e0f0      	LDI  R31,HIGH(32)
000972 15e4      	CP   R30,R4
000973 05f5      	CPC  R31,R5
000974 f409      	BRNE _0xEE
                 ; 0000 0202     {
                 ; 0000 0203         Screen32();
000975 df28      	RCALL _Screen32
                 ; 0000 0204     }
                 ; 0000 0205 }
                 _0xEE:
000976 9508      	RET
                 ;
                 ;void machine_state()
                 ; 0000 0208 {
                 _machine_state:
                 ; 0000 0209      if(fault_flag == 1)
000977 940e 11c0 	CALL SUBOPT_0x45
000979 f441      	BRNE _0xEF
                 ; 0000 020A      {
                 ; 0000 020B         mainOff();
00097a 940e 0202 	CALL _mainOff
                 ; 0000 020C         on_pressed = 0;
00097c e0e0      	LDI  R30,LOW(0)
00097d 93e0 0676 	STS  _on_pressed,R30
00097f 93e0 0677 	STS  _on_pressed+1,R30
                 ; 0000 020D      }
                 ; 0000 020E      else
000981 c020      	RJMP _0xF0
                 _0xEF:
                 ; 0000 020F      {
                 ; 0000 0210         PORTF |= 0x40;
000982 91e0 0062 	LDS  R30,98
000984 64e0      	ORI  R30,0x40
000985 93e0 0062 	STS  98,R30
                 ; 0000 0211 
                 ; 0000 0212         if(on_pressed == 1)
000987 91a0 0676 	LDS  R26,_on_pressed
000989 91b0 0677 	LDS  R27,_on_pressed+1
00098b 9711      	SBIW R26,1
00098c f441      	BRNE _0xF1
                 ; 0000 0213         {
                 ; 0000 0214             mainOn();
00098d 940e 01ff 	CALL _mainOn
                 ; 0000 0215             on_pressed = 0;
00098f e0e0      	LDI  R30,LOW(0)
000990 93e0 0676 	STS  _on_pressed,R30
000992 93e0 0677 	STS  _on_pressed+1,R30
                 ; 0000 0216             //status = 1;
                 ; 0000 0217         }
                 ; 0000 0218         else if(off_pressed == 1)
000994 c00d      	RJMP _0xF2
                 _0xF1:
000995 91a0 0678 	LDS  R26,_off_pressed
000997 91b0 0679 	LDS  R27,_off_pressed+1
000999 9711      	SBIW R26,1
00099a f439      	BRNE _0xF3
                 ; 0000 0219         {
                 ; 0000 021A             mainOff();
00099b 940e 0202 	CALL _mainOff
                 ; 0000 021B             off_pressed = 0;
00099d e0e0      	LDI  R30,LOW(0)
00099e 93e0 0678 	STS  _off_pressed,R30
0009a0 93e0 0679 	STS  _off_pressed+1,R30
                 ; 0000 021C             //status = 0;
                 ; 0000 021D         }
                 ; 0000 021E      }
                 _0xF3:
                 _0xF2:
                 _0xF0:
                 ; 0000 021F 
                 ; 0000 0220 //    if(data_received == 1)
                 ; 0000 0221 //    {
                 ; 0000 0222 //        recOp();
                 ; 0000 0223 //        data_received = 0;
                 ; 0000 0224 //        ms_update_flag = 1;
                 ; 0000 0225 //        //current_mainscreen_flag = 0;
                 ; 0000 0226 //    }
                 ; 0000 0227     if(reset_pressed == 1)
0009a2 91a0 067a 	LDS  R26,_reset_pressed
0009a4 91b0 067b 	LDS  R27,_reset_pressed+1
0009a6 9711      	SBIW R26,1
0009a7 f439      	BRNE _0xF4
                 ; 0000 0228     {
                 ; 0000 0229         resetFault();
0009a8 940e 0205 	CALL _resetFault
                 ; 0000 022A         reset_pressed = 0;
0009aa e0e0      	LDI  R30,LOW(0)
0009ab 93e0 067a 	STS  _reset_pressed,R30
0009ad 93e0 067b 	STS  _reset_pressed+1,R30
                 ; 0000 022B     }
                 ; 0000 022C 
                 ; 0000 022D 
                 ; 0000 022E }
                 _0xF4:
0009af 9508      	RET
                 ;
                 ;void main(void)
                 ; 0000 0231 {
                 _main:
                 ; 0000 0232 PORTA=0x00;
0009b0 e0e0      	LDI  R30,LOW(0)
0009b1 bbeb      	OUT  0x1B,R30
                 ; 0000 0233 DDRA=0x00;
0009b2 bbea      	OUT  0x1A,R30
                 ; 0000 0234 
                 ; 0000 0235 PORTB=0x08;
0009b3 e0e8      	LDI  R30,LOW(8)
0009b4 bbe8      	OUT  0x18,R30
                 ; 0000 0236 DDRB=0x00;
0009b5 e0e0      	LDI  R30,LOW(0)
0009b6 bbe7      	OUT  0x17,R30
                 ; 0000 0237 
                 ; 0000 0238 PORTC=0x08;
0009b7 e0e8      	LDI  R30,LOW(8)
0009b8 bbe5      	OUT  0x15,R30
                 ; 0000 0239 DDRC=0x08;
0009b9 bbe4      	OUT  0x14,R30
                 ; 0000 023A 
                 ; 0000 023B PORTD=0xDC;
0009ba edec      	LDI  R30,LOW(220)
0009bb bbe2      	OUT  0x12,R30
                 ; 0000 023C DDRD=0x08;
0009bc e0e8      	LDI  R30,LOW(8)
0009bd bbe1      	OUT  0x11,R30
                 ; 0000 023D 
                 ; 0000 023E PORTE=0xFF;
0009be efef      	LDI  R30,LOW(255)
0009bf b9e3      	OUT  0x3,R30
                 ; 0000 023F DDRE=0x00;
0009c0 e0e0      	LDI  R30,LOW(0)
0009c1 b9e2      	OUT  0x2,R30
                 ; 0000 0240 
                 ; 0000 0241 PORTF=0xFF;
0009c2 efef      	LDI  R30,LOW(255)
0009c3 93e0 0062 	STS  98,R30
                 ; 0000 0242 DDRF=0xFF;
0009c5 93e0 0061 	STS  97,R30
                 ; 0000 0243 
                 ; 0000 0244 PORTG=0x00;
0009c7 e0e0      	LDI  R30,LOW(0)
0009c8 93e0 0065 	STS  101,R30
                 ; 0000 0245 DDRG=0x00;
0009ca 93e0 0064 	STS  100,R30
                 ; 0000 0246 
                 ; 0000 0247 TCCR3A=0x00;
0009cc 93e0 008b 	STS  139,R30
                 ; 0000 0248 TCCR3B=0x09;
0009ce e0e9      	LDI  R30,LOW(9)
0009cf 93e0 008a 	STS  138,R30
                 ; 0000 0249 TCNT3H=0x00;
0009d1 e0e0      	LDI  R30,LOW(0)
0009d2 93e0 0089 	STS  137,R30
                 ; 0000 024A TCNT3L=0x00;
0009d4 93e0 0088 	STS  136,R30
                 ; 0000 024B ICR3H=0x00;
0009d6 93e0 0081 	STS  129,R30
                 ; 0000 024C ICR3L=0x00;
0009d8 93e0 0080 	STS  128,R30
                 ; 0000 024D OCR3AH=0xFF;
0009da efef      	LDI  R30,LOW(255)
0009db 93e0 0087 	STS  135,R30
                 ; 0000 024E OCR3AL=0xFF;
0009dd 93e0 0086 	STS  134,R30
                 ; 0000 024F OCR3BH=0x00;
0009df e0e0      	LDI  R30,LOW(0)
0009e0 93e0 0085 	STS  133,R30
                 ; 0000 0250 OCR3BL=0x00;
0009e2 93e0 0084 	STS  132,R30
                 ; 0000 0251 OCR3CH=0x00;
0009e4 93e0 0083 	STS  131,R30
                 ; 0000 0252 OCR3CL=0x00;
0009e6 93e0 0082 	STS  130,R30
                 ; 0000 0253 
                 ; 0000 0254 // External Interrupt(s) initialization
                 ; 0000 0255 //EICRA=0x00;
                 ; 0000 0256 //EICRB=0xAA;
                 ; 0000 0257 //EIMSK=0xF0;
                 ; 0000 0258 //EIFR=0xF0;
                 ; 0000 0259 
                 ; 0000 025A // Timer(s)/Counter(s) Interrupt(s) initialization
                 ; 0000 025B TIMSK=0x00;
0009e8 bfe7      	OUT  0x37,R30
                 ; 0000 025C ETIMSK=0x04;
0009e9 e0e4      	LDI  R30,LOW(4)
0009ea 93e0 007d 	STS  125,R30
                 ; 0000 025D 
                 ; 0000 025E 
                 ; 0000 025F // USART0 initialization
                 ; 0000 0260 // Communication Parameters: 8 Data, 1 Stop, No Parity
                 ; 0000 0261 // USART0 Receiver: On
                 ; 0000 0262 // USART0 Transmitter: On
                 ; 0000 0263 // USART0 Mode: Asynchronous
                 ; 0000 0264 // USART0 Baud Rate: 9600
                 ; 0000 0265 UCSR0A=(0<<RXC0) | (0<<TXC0) | (0<<UDRE0) | (0<<FE0) | (0<<DOR0) | (0<<UPE0) | (0<<U2X0) | (0<<MPCM0);
0009ec e0e0      	LDI  R30,LOW(0)
0009ed b9eb      	OUT  0xB,R30
                 ; 0000 0266 UCSR0B=(1<<RXCIE0) | (1<<TXCIE0) | (0<<UDRIE0) | (1<<RXEN0) | (1<<TXEN0) | (0<<UCSZ02) | (0<<RXB80) | (0<<TXB80);
0009ee ede8      	LDI  R30,LOW(216)
0009ef b9ea      	OUT  0xA,R30
                 ; 0000 0267 UCSR0C=(0<<UMSEL0) | (0<<UPM01) | (0<<UPM00) | (0<<USBS0) | (1<<UCSZ01) | (1<<UCSZ00) | (0<<UCPOL0);
0009f0 e0e6      	LDI  R30,LOW(6)
0009f1 93e0 0095 	STS  149,R30
                 ; 0000 0268 UBRR0H=0x00;
0009f3 e0e0      	LDI  R30,LOW(0)
0009f4 93e0 0090 	STS  144,R30
                 ; 0000 0269 UBRR0L=0x33;
0009f6 e3e3      	LDI  R30,LOW(51)
0009f7 b9e9      	OUT  0x9,R30
                 ; 0000 026A 
                 ; 0000 026B // I2C Bus initialization
                 ; 0000 026C i2c_init();
0009f8 940e 1291 	CALL _i2c_init
                 ; 0000 026D 
                 ; 0000 026E // DS1307 Real Time Clock initialization
                 ; 0000 026F // Square wave output on pin SQW/OUT: Off
                 ; 0000 0270 // SQW/OUT pin state: 0
                 ; 0000 0271 rtc_init(0,0,0);
0009fa e0e0      	LDI  R30,LOW(0)
0009fb 93ea      	ST   -Y,R30
0009fc 93ea      	ST   -Y,R30
0009fd 93ea      	ST   -Y,R30
0009fe 940e 0f72 	CALL _rtc_init
                 ; 0000 0272 
                 ; 0000 0273 lcd_init(16);
000a00 e1e0      	LDI  R30,LOW(16)
000a01 93ea      	ST   -Y,R30
000a02 940e 0f3c 	CALL _lcd_init
                 ; 0000 0274 
                 ; 0000 0275 // Global enable interrupts
                 ; 0000 0276 #asm("sei")
000a04 9478      	sei
                 ; 0000 0277 
                 ; 0000 0278 
                 ; 0000 0279 
                 ; 0000 027A //address = 0x0000;
                 ; 0000 027B //dataByte = 20;
                 ; 0000 027C //
                 ; 0000 027D //while(1){
                 ; 0000 027E //if(PINE.5 == 0){
                 ; 0000 027F //while (PINE.5 == 0)
                 ; 0000 0280 //writeByte(address,dataByte);
                 ; 0000 0281 //lcd_clear();
                 ; 0000 0282 //sprintf(disp_eeprom_write,"Data %d is written to address %04d",dataByte,address);
                 ; 0000 0283 //lcd_gotoxy(0,0);
                 ; 0000 0284 //lcd_puts(disp_eeprom_write);
                 ; 0000 0285 //dataByte++;
                 ; 0000 0286 //}
                 ; 0000 0287 //
                 ; 0000 0288 //if(PINE.7 == 0){
                 ; 0000 0289 //while (PINE.7 == 0)
                 ; 0000 028A //read_data = readByte(address);
                 ; 0000 028B //lcd_clear();
                 ; 0000 028C //lcd_gotoxy(0,0);
                 ; 0000 028D //lcd_puts("read data is:");
                 ; 0000 028E //lcd_gotoxy(0,1);
                 ; 0000 028F //sprintf(disp_eeprom_read,"%d",read_data);
                 ; 0000 0290 //lcd_puts(disp_eeprom_read);
                 ; 0000 0291 //}
                 ; 0000 0292 //
                 ; 0000 0293 //
                 ; 0000 0294 //if(PINB.3 == 0){
                 ; 0000 0295 //while(PINB.3 == 0)
                 ; 0000 0296 //writePage(address,data_ptr,8);
                 ; 0000 0297 //lcd_clear();
                 ; 0000 0298 //lcd_gotoxy(0,0);
                 ; 0000 0299 //lcd_puts(dataArr);
                 ; 0000 029A //
                 ; 0000 029B //
                 ; 0000 029C //}
                 ; 0000 029D //
                 ; 0000 029E //if(PIND.2 == 0){
                 ; 0000 029F //while(PIND.2 == 0)
                 ; 0000 02A0 //
                 ; 0000 02A1 //readData(address,rddata_ptr,8);
                 ; 0000 02A2 ////read_data = readByte(0x0002);
                 ; 0000 02A3 //lcd_clear();
                 ; 0000 02A4 //lcd_gotoxy(0,0);
                 ; 0000 02A5 ////sprintf(disp_eeprom_read,"%d",read_data);
                 ; 0000 02A6 ////lcd_puts(disp_eeprom_read);
                 ; 0000 02A7 //lcd_puts(rddataArr);
                 ; 0000 02A8 //}
                 ; 0000 02A9 //
                 ; 0000 02AA //}
                 ; 0000 02AB 
                 ; 0000 02AC 
                 ; 0000 02AD 
                 ; 0000 02AE 
                 ; 0000 02AF 
                 ; 0000 02B0     while(1)
                 _0xF5:
                 ; 0000 02B1         {
                 ; 0000 02B2             if(fault_flag == 1)
000a05 940e 11c0 	CALL SUBOPT_0x45
000a07 f489      	BRNE _0xF8
                 ; 0000 02B3             {
                 ; 0000 02B4                 lcd_clear();
000a08 940e 10f8 	CALL SUBOPT_0x28
                 ; 0000 02B5                 lcd_gotoxy(0,0);
                 ; 0000 02B6                 lcd_puts("Fault ID:");
                +
000a0a e6e9     +LDI R30 , LOW ( _0xF9 + ( 0 ) )
000a0b e0f5     +LDI R31 , HIGH ( _0xF9 + ( 0 ) )
                 	__POINTW1MN _0xF9,0
000a0c 940e 10fb 	CALL SUBOPT_0x29
                 ; 0000 02B7                 lcd_gotoxy(4,2);
000a0e 940e 11c6 	CALL SUBOPT_0x46
                 ; 0000 02B8 
                 ; 0000 02B9 
                 ; 0000 02BA                 lcd_puts(fltArray);
000a10 ede2      	LDI  R30,LOW(_fltArray)
000a11 e0f5      	LDI  R31,HIGH(_fltArray)
000a12 940e 10fb 	CALL SUBOPT_0x29
                 ; 0000 02BB 
                 ; 0000 02BC                 while(fault_flag == 1)
                 _0xFA:
000a14 940e 11c0 	CALL SUBOPT_0x45
000a16 f411      	BRNE _0xFC
                 ; 0000 02BD                 machine_state();
000a17 df5f      	RCALL _machine_state
000a18 cffb      	RJMP _0xFA
                 _0xFC:
                 ; 0000 02BE }
                 ; 0000 02BF 
                 ; 0000 02C0             if (Screen == 1)        //runs only at start
                 _0xF8:
000a19 e0e1      	LDI  R30,LOW(1)
000a1a e0f0      	LDI  R31,HIGH(1)
000a1b 15e4      	CP   R30,R4
000a1c 05f5      	CPC  R31,R5
000a1d f409      	BRNE _0xFD
                 ; 0000 02C1             {Screen1();}
000a1e dd95      	RCALL _Screen1
                 ; 0000 02C2 
                 ; 0000 02C3             while(rtc_display_counter != 300){
                 _0xFD:
                 _0xFE:
000a1f 91a0 05b7 	LDS  R26,_rtc_display_counter
000a21 91b0 05b8 	LDS  R27,_rtc_display_counter+1
000a23 32ac      	CPI  R26,LOW(0x12C)
000a24 e0e1      	LDI  R30,HIGH(0x12C)
000a25 07be      	CPC  R27,R30
000a26 f411      	BRNE PC+3
000a27 940c 0a6b 	JMP _0x100
                 ; 0000 02C4 
                 ; 0000 02C5                 rtc_get_time(&hour,&minute,&second);
000a29 940e 1195 	CALL SUBOPT_0x41
                 ; 0000 02C6                 lcd_gotoxy(0,0);
                 ; 0000 02C7                 lcd_puts("Time:");
                +
000a2b e7e3     +LDI R30 , LOW ( _0xF9 + ( 10 ) )
000a2c e0f5     +LDI R31 , HIGH ( _0xF9 + ( 10 ) )
                 	__POINTW1MN _0xF9,10
000a2d 940e 10fb 	CALL SUBOPT_0x29
                 ; 0000 02C8                 sprintf(disp_time,"%02d:%02d:%02d",hour,minute,second);
000a2f ebef      	LDI  R30,LOW(_disp_time)
000a30 e0f5      	LDI  R31,HIGH(_disp_time)
000a31 940e 107e 	CALL SUBOPT_0x19
000a33 91e0 05b9 	LDS  R30,_hour
000a35 940e 1085 	CALL SUBOPT_0x1A
000a37 91e0 05ba 	LDS  R30,_minute
000a39 940e 1085 	CALL SUBOPT_0x1A
000a3b 91e0 05bb 	LDS  R30,_second
000a3d 940e 1085 	CALL SUBOPT_0x1A
000a3f 940e 11a4 	CALL SUBOPT_0x42
                 ; 0000 02C9                 lcd_gotoxy(6,0);
000a41 940e 117b 	CALL SUBOPT_0x3C
                 ; 0000 02CA                 lcd_puts(disp_time);
000a43 ebef      	LDI  R30,LOW(_disp_time)
000a44 e0f5      	LDI  R31,HIGH(_disp_time)
000a45 940e 10fb 	CALL SUBOPT_0x29
                 ; 0000 02CB 
                 ; 0000 02CC                 rtc_get_date(&date,&month,&year);
000a47 940e 11aa 	CALL SUBOPT_0x43
                 ; 0000 02CD                 lcd_gotoxy(0,2);
                 ; 0000 02CE                 lcd_puts("Date:");
                +
000a49 e7e9     +LDI R30 , LOW ( _0xF9 + ( 16 ) )
000a4a e0f5     +LDI R31 , HIGH ( _0xF9 + ( 16 ) )
                 	__POINTW1MN _0xF9,16
000a4b 940e 10fb 	CALL SUBOPT_0x29
                 ; 0000 02CF                 sprintf(disp_date,"%02d/%02d/%02d",date,month,year);
000a4d ece0      	LDI  R30,LOW(_disp_date)
000a4e e0f5      	LDI  R31,HIGH(_disp_date)
000a4f 940e 1090 	CALL SUBOPT_0x1C
000a51 91e0 05bc 	LDS  R30,_date
000a53 940e 1085 	CALL SUBOPT_0x1A
000a55 91e0 05bd 	LDS  R30,_month
000a57 940e 1085 	CALL SUBOPT_0x1A
000a59 91e0 05be 	LDS  R30,_year
000a5b 940e 1085 	CALL SUBOPT_0x1A
000a5d 940e 11a4 	CALL SUBOPT_0x42
                 ; 0000 02D0                 lcd_gotoxy(6,2);
000a5f 93ea      	ST   -Y,R30
000a60 940e 1050 	CALL SUBOPT_0x11
                 ; 0000 02D1                 lcd_puts(disp_date);
000a62 ece0      	LDI  R30,LOW(_disp_date)
000a63 e0f5      	LDI  R31,HIGH(_disp_date)
000a64 940e 10fb 	CALL SUBOPT_0x29
                 ; 0000 02D2 
                 ; 0000 02D3                 rtc_display_counter++;
000a66 eba7      	LDI  R26,LOW(_rtc_display_counter)
000a67 e0b5      	LDI  R27,HIGH(_rtc_display_counter)
000a68 940e 1023 	CALL SUBOPT_0xA
                 ; 0000 02D4             }
000a6a cfb4      	RJMP _0xFE
                 _0x100:
                 ; 0000 02D5 
                 ; 0000 02D6 
                 ; 0000 02D7 
                 ; 0000 02D8             if (main_screen_trigger == 1) //| ms_update_flag == 1)
000a6b 91a0 05ad 	LDS  R26,_main_screen_trigger
000a6d 91b0 05ae 	LDS  R27,_main_screen_trigger+1
000a6f 9711      	SBIW R26,1
000a70 f011      	BREQ PC+3
000a71 940c 0b14 	JMP _0x101
                 ; 0000 02D9             {
                 ; 0000 02DA                 if(current_mainscreen_flag == 1)
000a73 91a0 05b1 	LDS  R26,_current_mainscreen_flag
000a75 91b0 05b2 	LDS  R27,_current_mainscreen_flag+1
000a77 9711      	SBIW R26,1
000a78 f409      	BRNE _0x102
                 ; 0000 02DB                 {Main_Screen();}      //Function to display all values
000a79 de71      	RCALL _Main_Screen
                 ; 0000 02DC 
                 ; 0000 02DD                 lcd_gotoxy(3,1);
                 _0x102:
000a7a e0e3      	LDI  R30,LOW(3)
000a7b 940e 10ff 	CALL SUBOPT_0x2A
                 ; 0000 02DE                 sprintf(disp_actual_voltage,"%03d",actual_voltage);
000a7d eee8      	LDI  R30,LOW(_disp_actual_voltage)
000a7e e0f5      	LDI  R31,HIGH(_disp_actual_voltage)
000a7f 940e 1064 	CALL SUBOPT_0x15
000a81 91e0 059b 	LDS  R30,_actual_voltage_G000
000a83 91f0 059c 	LDS  R31,_actual_voltage_G000+1
000a85 940e 14c9 	CALL __CWD1
000a87 940e 11b9 	CALL SUBOPT_0x44
                 ; 0000 02DF                 lcd_puts("000");
                +
000a89 e7ef     +LDI R30 , LOW ( _0xF9 + ( 22 ) )
000a8a e0f5     +LDI R31 , HIGH ( _0xF9 + ( 22 ) )
                 	__POINTW1MN _0xF9,22
000a8b 940e 10fb 	CALL SUBOPT_0x29
                 ; 0000 02E0                 lcd_gotoxy(3,1);
000a8d e0e3      	LDI  R30,LOW(3)
000a8e 940e 10ff 	CALL SUBOPT_0x2A
                 ; 0000 02E1                 lcd_puts(disp_actual_voltage);
000a90 eee8      	LDI  R30,LOW(_disp_actual_voltage)
000a91 e0f5      	LDI  R31,HIGH(_disp_actual_voltage)
000a92 940e 10fb 	CALL SUBOPT_0x29
                 ; 0000 02E2 
                 ; 0000 02E3                 lcd_gotoxy(12,1);
000a94 e0ec      	LDI  R30,LOW(12)
000a95 940e 10ff 	CALL SUBOPT_0x2A
                 ; 0000 02E4                 sprintf(disp_actual_btcurrent,"%02d.%01d",actual_btcurrentip,actual_btcurrentdp);
000a97 eeeb      	LDI  R30,LOW(_disp_actual_btcurrent)
000a98 e0f5      	LDI  R31,HIGH(_disp_actual_btcurrent)
000a99 940e 11c9 	CALL SUBOPT_0x47
000a9b 91e0 059f 	LDS  R30,_actual_btcurrentip_G000
000a9d 91f0 05a0 	LDS  R31,_actual_btcurrentip_G000+1
000a9f 940e 11d0 	CALL SUBOPT_0x48
000aa1 91e0 059d 	LDS  R30,_actual_btcurrentdp_G000
000aa3 91f0 059e 	LDS  R31,_actual_btcurrentdp_G000+1
000aa5 940e 11d0 	CALL SUBOPT_0x48
000aa7 e088      	LDI  R24,8
000aa8 d200      	RCALL _sprintf
000aa9 962c      	ADIW R28,12
                 ; 0000 02E5                 lcd_puts("000");
                +
000aaa e8e3     +LDI R30 , LOW ( _0xF9 + ( 26 ) )
000aab e0f5     +LDI R31 , HIGH ( _0xF9 + ( 26 ) )
                 	__POINTW1MN _0xF9,26
000aac 940e 10fb 	CALL SUBOPT_0x29
                 ; 0000 02E6                 lcd_gotoxy(12,1);
000aae e0ec      	LDI  R30,LOW(12)
000aaf 940e 10ff 	CALL SUBOPT_0x2A
                 ; 0000 02E7                 lcd_puts(disp_actual_btcurrent);
000ab1 eeeb      	LDI  R30,LOW(_disp_actual_btcurrent)
000ab2 e0f5      	LDI  R31,HIGH(_disp_actual_btcurrent)
000ab3 940e 10fb 	CALL SUBOPT_0x29
                 ; 0000 02E8 
                 ; 0000 02E9                 lcd_gotoxy(4,2);
000ab5 940e 11c6 	CALL SUBOPT_0x46
                 ; 0000 02EA                 sprintf(disp_actual_ipvoltage,"%03d",actual_ipvoltage);
000ab7 eeef      	LDI  R30,LOW(_disp_actual_ipvoltage)
000ab8 e0f5      	LDI  R31,HIGH(_disp_actual_ipvoltage)
000ab9 940e 1064 	CALL SUBOPT_0x15
000abb 91e0 05a1 	LDS  R30,_actual_ipvoltage_G000
000abd 91f0 05a2 	LDS  R31,_actual_ipvoltage_G000+1
000abf 940e 14c9 	CALL __CWD1
000ac1 940e 11b9 	CALL SUBOPT_0x44
                 ; 0000 02EB                 lcd_puts("000");
                +
000ac3 e8e7     +LDI R30 , LOW ( _0xF9 + ( 30 ) )
000ac4 e0f5     +LDI R31 , HIGH ( _0xF9 + ( 30 ) )
                 	__POINTW1MN _0xF9,30
000ac5 940e 10fb 	CALL SUBOPT_0x29
                 ; 0000 02EC                 lcd_gotoxy(4,2);
000ac7 940e 11c6 	CALL SUBOPT_0x46
                 ; 0000 02ED                 lcd_puts(disp_actual_ipvoltage);
000ac9 eeef      	LDI  R30,LOW(_disp_actual_ipvoltage)
000aca e0f5      	LDI  R31,HIGH(_disp_actual_ipvoltage)
000acb 940e 10fb 	CALL SUBOPT_0x29
                 ; 0000 02EE 
                 ; 0000 02EF                 lcd_gotoxy(12,2);
000acd e0ec      	LDI  R30,LOW(12)
000ace 93ea      	ST   -Y,R30
000acf 940e 1050 	CALL SUBOPT_0x11
                 ; 0000 02F0                 sprintf(disp_actual_opcurrent,"%02d.%01d",actual_opcurrentip,actual_opcurrentdp);
000ad1 efe2      	LDI  R30,LOW(_disp_actual_opcurrent)
000ad2 e0f5      	LDI  R31,HIGH(_disp_actual_opcurrent)
000ad3 940e 11c9 	CALL SUBOPT_0x47
000ad5 91e0 05a5 	LDS  R30,_actual_opcurrentip_G000
000ad7 91f0 05a6 	LDS  R31,_actual_opcurrentip_G000+1
000ad9 940e 11d0 	CALL SUBOPT_0x48
000adb 91e0 05a3 	LDS  R30,_actual_opcurrentdp_G000
000add 91f0 05a4 	LDS  R31,_actual_opcurrentdp_G000+1
000adf 940e 11d0 	CALL SUBOPT_0x48
000ae1 e088      	LDI  R24,8
000ae2 d1c6      	RCALL _sprintf
000ae3 962c      	ADIW R28,12
                 ; 0000 02F1                 lcd_puts("000");
                +
000ae4 e8eb     +LDI R30 , LOW ( _0xF9 + ( 34 ) )
000ae5 e0f5     +LDI R31 , HIGH ( _0xF9 + ( 34 ) )
                 	__POINTW1MN _0xF9,34
000ae6 940e 10fb 	CALL SUBOPT_0x29
                 ; 0000 02F2                 lcd_gotoxy(12,2);
000ae8 e0ec      	LDI  R30,LOW(12)
000ae9 93ea      	ST   -Y,R30
000aea 940e 1050 	CALL SUBOPT_0x11
                 ; 0000 02F3                 lcd_puts(disp_actual_opcurrent);
000aec efe2      	LDI  R30,LOW(_disp_actual_opcurrent)
000aed e0f5      	LDI  R31,HIGH(_disp_actual_opcurrent)
000aee 940e 10fb 	CALL SUBOPT_0x29
                 ; 0000 02F4                 if (status == 1)
000af0 91a0 05b3 	LDS  R26,_status
000af2 91b0 05b4 	LDS  R27,_status+1
000af4 9711      	SBIW R26,1
000af5 f431      	BRNE _0x103
                 ; 0000 02F5                 {
                 ; 0000 02F6                 lcd_gotoxy(1,3);
000af6 e0e1      	LDI  R30,LOW(1)
000af7 940e 105f 	CALL SUBOPT_0x14
                 ; 0000 02F7                 lcd_putsf("Machine : ON ");
                +
000af9 ebe6     +LDI R30 , LOW ( 2 * _0x0 + ( 500 ) )
000afa e0f2     +LDI R31 , HIGH ( 2 * _0x0 + ( 500 ) )
                 	__POINTW1FN _0x0,500
000afb c00b      	RJMP _0x11C
                 ; 0000 02F8                 }
                 ; 0000 02F9                 else if (status == 0)
                 _0x103:
000afc 91e0 05b3 	LDS  R30,_status
000afe 91f0 05b4 	LDS  R31,_status+1
000b00 9730      	SBIW R30,0
000b01 f449      	BRNE _0x105
                 ; 0000 02FA                 {
                 ; 0000 02FB                     lcd_gotoxy(1,3);
000b02 e0e1      	LDI  R30,LOW(1)
000b03 940e 105f 	CALL SUBOPT_0x14
                 ; 0000 02FC                     lcd_putsf("Machine : OFF");
                +
000b05 ece4     +LDI R30 , LOW ( 2 * _0x0 + ( 514 ) )
000b06 e0f2     +LDI R31 , HIGH ( 2 * _0x0 + ( 514 ) )
                 	__POINTW1FN _0x0,514
                 _0x11C:
000b07 93fa      	ST   -Y,R31
000b08 93ea      	ST   -Y,R30
000b09 940e 0f2c 	CALL _lcd_putsf
                 ; 0000 02FD                 }
                 ; 0000 02FE                 ms_update_flag = 0;
                 _0x105:
000b0b e0e0      	LDI  R30,LOW(0)
000b0c 93e0 05af 	STS  _ms_update_flag,R30
000b0e 93e0 05b0 	STS  _ms_update_flag+1,R30
                 ; 0000 02FF                 //main_screen_trigger = 0;
                 ; 0000 0300                 current_mainscreen_flag = 0;
000b10 93e0 05b1 	STS  _current_mainscreen_flag,R30
000b12 93e0 05b2 	STS  _current_mainscreen_flag+1,R30
                 ; 0000 0301             }
                 ; 0000 0302 
                 ; 0000 0303             machine_state();    //Check for ON,OFF,reset  button press
                 _0x101:
000b14 de62      	RCALL _machine_state
                 ; 0000 0304 
                 ; 0000 0305             if (PIND.2 == 0)    //When 4 pressed
000b15 9982      	SBIC 0x10,2
000b16 c023      	RJMP _0x106
                 ; 0000 0306             {
                 ; 0000 0307                 main_screen_trigger = 0;
000b17 e0e0      	LDI  R30,LOW(0)
000b18 93e0 05ad 	STS  _main_screen_trigger,R30
000b1a 93e0 05ae 	STS  _main_screen_trigger+1,R30
                 ; 0000 0308                 while(set_flag != 1)
                 _0x107:
000b1c 91a0 05a7 	LDS  R26,_set_flag
000b1e 91b0 05a8 	LDS  R27,_set_flag+1
000b20 9711      	SBIW R26,1
000b21 f071      	BREQ _0x109
                 ; 0000 0309                 {
                 ; 0000 030A                 while(Screen != Current_Screen)
                 _0x10A:
                +
000b22 1464     +CP R6 , R4
000b23 0475     +CPC R7 , R5
                 	__CPWRR 6,7,4,5
000b24 f011      	BREQ _0x10C
                 ; 0000 030B                 {
                 ; 0000 030C                     Screen_sel();       //Screen selection
000b25 de1a      	RCALL _Screen_sel
                 ; 0000 030D                 }
000b26 cffb      	RJMP _0x10A
                 _0x10C:
                 ; 0000 030E                 input(n);
000b27 91e0 05ab 	LDS  R30,_n
000b29 91f0 05ac 	LDS  R31,_n+1
000b2b 93fa      	ST   -Y,R31
000b2c 93ea      	ST   -Y,R30
000b2d d9db      	RCALL _input
                 ; 0000 030F                 machine_state();
000b2e de48      	RCALL _machine_state
                 ; 0000 0310                 }
000b2f cfec      	RJMP _0x107
                 _0x109:
                 ; 0000 0311                 set_flag = 0;
000b30 e0e0      	LDI  R30,LOW(0)
000b31 93e0 05a7 	STS  _set_flag,R30
000b33 93e0 05a8 	STS  _set_flag+1,R30
                 ; 0000 0312                 Screen = 2;
000b35 e0e2      	LDI  R30,LOW(2)
000b36 e0f0      	LDI  R31,HIGH(2)
000b37 012f      	MOVW R4,R30
                 ; 0000 0313                 lcd_clear();
000b38 940e 0ee6 	CALL _lcd_clear
                 ; 0000 0314             }
                 ; 0000 0315 
                 ; 0000 0316 
                 ; 0000 0317         }
                 _0x106:
000b3a ceca      	RJMP _0xF5
                 ; 0000 0318 
                 ; 0000 0319 }
                 _0x10D:
000b3b cfff      	RJMP _0x10D
                 
                 	.DSEG
                 _0xF9:
000569           	.BYTE 0x26
                 	#ifndef __SLEEP_DEFINED__
                 	#endif
                 
                 	.CSEG
                 _put_buff_G100:
000b3c 931a      	ST   -Y,R17
000b3d 930a      	ST   -Y,R16
000b3e 81aa      	LDD  R26,Y+2
000b3f 81bb      	LDD  R27,Y+2+1
000b40 9612      	ADIW R26,2
000b41 940e 150f 	CALL __GETW1P
000b43 9730      	SBIW R30,0
000b44 f129      	BREQ _0x2000010
000b45 81aa      	LDD  R26,Y+2
000b46 81bb      	LDD  R27,Y+2+1
000b47 9614      	ADIW R26,4
000b48 940e 150f 	CALL __GETW1P
000b4a 018f      	MOVW R16,R30
000b4b 9730      	SBIW R30,0
000b4c f061      	BREQ _0x2000012
                +
000b4d 3002     +CPI R16 , LOW ( 2 )
000b4e e0e0     +LDI R30 , HIGH ( 2 )
000b4f 071e     +CPC R17 , R30
                 	__CPWRN 16,17,2
000b50 f0c0      	BRLO _0x2000013
000b51 01f8      	MOVW R30,R16
000b52 9731      	SBIW R30,1
000b53 018f      	MOVW R16,R30
                +
000b54 81aa     +LDD R26 , Y + 2
000b55 81bb     +LDD R27 , Y + 2 + 1
000b56 9614     +ADIW R26 , 4
000b57 93ed     +ST X + , R30
000b58 93fc     +ST X , R31
                 	__PUTW1SNS 2,4
                 _0x2000012:
000b59 81aa      	LDD  R26,Y+2
000b5a 81bb      	LDD  R27,Y+2+1
000b5b 9612      	ADIW R26,2
000b5c 940e 1023 	CALL SUBOPT_0xA
000b5e 9731      	SBIW R30,1
000b5f 81ac      	LDD  R26,Y+4
000b60 83a0      	STD  Z+0,R26
000b61 81aa      	LDD  R26,Y+2
000b62 81bb      	LDD  R27,Y+2+1
000b63 940e 150f 	CALL __GETW1P
000b65 23ff      	TST  R31
000b66 f012      	BRMI _0x2000014
000b67 940e 1023 	CALL SUBOPT_0xA
                 _0x2000014:
                 _0x2000013:
000b69 c006      	RJMP _0x2000015
                 _0x2000010:
000b6a 81aa      	LDD  R26,Y+2
000b6b 81bb      	LDD  R27,Y+2+1
000b6c efef      	LDI  R30,LOW(65535)
000b6d efff      	LDI  R31,HIGH(65535)
000b6e 93ed      	ST   X+,R30
000b6f 93fc      	ST   X,R31
                 _0x2000015:
000b70 8119      	LDD  R17,Y+1
000b71 8108      	LDD  R16,Y+0
000b72 9625      	ADIW R28,5
000b73 9508      	RET
                 __print_G100:
000b74 9726      	SBIW R28,6
000b75 940e 1547 	CALL __SAVELOCR6
000b77 e010      	LDI  R17,0
000b78 85ac      	LDD  R26,Y+12
000b79 85bd      	LDD  R27,Y+12+1
000b7a e0e0      	LDI  R30,LOW(0)
000b7b e0f0      	LDI  R31,HIGH(0)
000b7c 93ed      	ST   X+,R30
000b7d 93fc      	ST   X,R31
                 _0x2000016:
000b7e 89ea      	LDD  R30,Y+18
000b7f 89fb      	LDD  R31,Y+18+1
000b80 9631      	ADIW R30,1
000b81 8bea      	STD  Y+18,R30
000b82 8bfb      	STD  Y+18+1,R31
000b83 9731      	SBIW R30,1
000b84 91e4      	LPM  R30,Z
000b85 2f2e      	MOV  R18,R30
000b86 30e0      	CPI  R30,0
000b87 f411      	BRNE PC+3
000b88 940c 0ca1 	JMP _0x2000018
000b8a 2fe1      	MOV  R30,R17
000b8b 30e0      	CPI  R30,0
000b8c f439      	BRNE _0x200001C
000b8d 3225      	CPI  R18,37
000b8e f411      	BRNE _0x200001D
000b8f e011      	LDI  R17,LOW(1)
000b90 c002      	RJMP _0x200001E
                 _0x200001D:
000b91 940e 11d5 	CALL SUBOPT_0x49
                 _0x200001E:
000b93 c10c      	RJMP _0x200001B
                 _0x200001C:
000b94 30e1      	CPI  R30,LOW(0x1)
000b95 f4a9      	BRNE _0x200001F
000b96 3225      	CPI  R18,37
000b97 f419      	BRNE _0x2000020
000b98 940e 11d5 	CALL SUBOPT_0x49
000b9a c104      	RJMP _0x20000C9
                 _0x2000020:
000b9b e012      	LDI  R17,LOW(2)
000b9c e040      	LDI  R20,LOW(0)
000b9d e000      	LDI  R16,LOW(0)
000b9e 322d      	CPI  R18,45
000b9f f411      	BRNE _0x2000021
000ba0 e001      	LDI  R16,LOW(1)
000ba1 c0fe      	RJMP _0x200001B
                 _0x2000021:
000ba2 322b      	CPI  R18,43
000ba3 f411      	BRNE _0x2000022
000ba4 e24b      	LDI  R20,LOW(43)
000ba5 c0fa      	RJMP _0x200001B
                 _0x2000022:
000ba6 3220      	CPI  R18,32
000ba7 f411      	BRNE _0x2000023
000ba8 e240      	LDI  R20,LOW(32)
000ba9 c0f6      	RJMP _0x200001B
                 _0x2000023:
000baa c002      	RJMP _0x2000024
                 _0x200001F:
000bab 30e2      	CPI  R30,LOW(0x2)
000bac f439      	BRNE _0x2000025
                 _0x2000024:
000bad e050      	LDI  R21,LOW(0)
000bae e013      	LDI  R17,LOW(3)
000baf 3320      	CPI  R18,48
000bb0 f411      	BRNE _0x2000026
000bb1 6800      	ORI  R16,LOW(128)
000bb2 c0ed      	RJMP _0x200001B
                 _0x2000026:
000bb3 c004      	RJMP _0x2000027
                 _0x2000025:
000bb4 30e3      	CPI  R30,LOW(0x3)
000bb5 f011      	BREQ PC+3
000bb6 940c 0ca0 	JMP _0x200001B
                 _0x2000027:
000bb8 3320      	CPI  R18,48
000bb9 f010      	BRLO _0x200002A
000bba 332a      	CPI  R18,58
000bbb f008      	BRLO _0x200002B
                 _0x200002A:
000bbc c007      	RJMP _0x2000029
                 _0x200002B:
000bbd e0aa      	LDI  R26,LOW(10)
000bbe 9f5a      	MUL  R21,R26
000bbf 2d50      	MOV  R21,R0
000bc0 2fe2      	MOV  R30,R18
000bc1 53e0      	SUBI R30,LOW(48)
000bc2 0f5e      	ADD  R21,R30
000bc3 c0dc      	RJMP _0x200001B
                 _0x2000029:
000bc4 2fe2      	MOV  R30,R18
000bc5 36e3      	CPI  R30,LOW(0x63)
000bc6 f449      	BRNE _0x200002F
000bc7 940e 11de 	CALL SUBOPT_0x4A
000bc9 89e8      	LDD  R30,Y+16
000bca 89f9      	LDD  R31,Y+16+1
000bcb 81a4      	LDD  R26,Z+4
000bcc 93aa      	ST   -Y,R26
000bcd 940e 11e4 	CALL SUBOPT_0x4B
000bcf c0cf      	RJMP _0x2000030
                 _0x200002F:
000bd0 37e3      	CPI  R30,LOW(0x73)
000bd1 f441      	BRNE _0x2000032
000bd2 940e 11de 	CALL SUBOPT_0x4A
000bd4 940e 11ec 	CALL SUBOPT_0x4C
000bd6 940e 0e8e 	CALL _strlen
000bd8 2f1e      	MOV  R17,R30
000bd9 c00a      	RJMP _0x2000033
                 _0x2000032:
000bda 37e0      	CPI  R30,LOW(0x70)
000bdb f461      	BRNE _0x2000035
000bdc 940e 11de 	CALL SUBOPT_0x4A
000bde 940e 11ec 	CALL SUBOPT_0x4C
000be0 940e 0e98 	CALL _strlenf
000be2 2f1e      	MOV  R17,R30
000be3 6008      	ORI  R16,LOW(8)
                 _0x2000033:
000be4 6002      	ORI  R16,LOW(2)
000be5 770f      	ANDI R16,LOW(127)
000be6 e030      	LDI  R19,LOW(0)
000be7 c035      	RJMP _0x2000036
                 _0x2000035:
000be8 36e4      	CPI  R30,LOW(0x64)
000be9 f011      	BREQ _0x2000039
000bea 36e9      	CPI  R30,LOW(0x69)
000beb f411      	BRNE _0x200003A
                 _0x2000039:
000bec 6004      	ORI  R16,LOW(4)
000bed c002      	RJMP _0x200003B
                 _0x200003A:
000bee 37e5      	CPI  R30,LOW(0x75)
000bef f431      	BRNE _0x200003C
                 _0x200003B:
000bf0 e8ec      	LDI  R30,LOW(_tbl10_G100*2)
000bf1 e0f0      	LDI  R31,HIGH(_tbl10_G100*2)
000bf2 83ee      	STD  Y+6,R30
000bf3 83ff      	STD  Y+6+1,R31
000bf4 e015      	LDI  R17,LOW(5)
000bf5 c00d      	RJMP _0x200003D
                 _0x200003C:
000bf6 35e8      	CPI  R30,LOW(0x58)
000bf7 f411      	BRNE _0x200003F
000bf8 6008      	ORI  R16,LOW(8)
000bf9 c004      	RJMP _0x2000040
                 _0x200003F:
000bfa 37e8      	CPI  R30,LOW(0x78)
000bfb f011      	BREQ PC+3
000bfc 940c 0c9f 	JMP _0x2000071
                 _0x2000040:
000bfe e9e6      	LDI  R30,LOW(_tbl16_G100*2)
000bff e0f0      	LDI  R31,HIGH(_tbl16_G100*2)
000c00 83ee      	STD  Y+6,R30
000c01 83ff      	STD  Y+6+1,R31
000c02 e014      	LDI  R17,LOW(4)
                 _0x200003D:
000c03 ff02      	SBRS R16,2
000c04 c014      	RJMP _0x2000042
000c05 940e 11de 	CALL SUBOPT_0x4A
000c07 940e 11f6 	CALL SUBOPT_0x4D
000c09 85ab      	LDD  R26,Y+11
000c0a 23aa      	TST  R26
000c0b f43a      	BRPL _0x2000043
000c0c 85ea      	LDD  R30,Y+10
000c0d 85fb      	LDD  R31,Y+10+1
000c0e 940e 14bd 	CALL __ANEGW1
000c10 87ea      	STD  Y+10,R30
000c11 87fb      	STD  Y+10+1,R31
000c12 e24d      	LDI  R20,LOW(45)
                 _0x2000043:
000c13 3040      	CPI  R20,0
000c14 f011      	BREQ _0x2000044
000c15 5f1f      	SUBI R17,-LOW(1)
000c16 c001      	RJMP _0x2000045
                 _0x2000044:
000c17 7f0b      	ANDI R16,LOW(251)
                 _0x2000045:
000c18 c004      	RJMP _0x2000046
                 _0x2000042:
000c19 940e 11de 	CALL SUBOPT_0x4A
000c1b 940e 11f6 	CALL SUBOPT_0x4D
                 _0x2000046:
                 _0x2000036:
000c1d fd00      	SBRC R16,0
000c1e c011      	RJMP _0x2000047
                 _0x2000048:
000c1f 1715      	CP   R17,R21
000c20 f478      	BRSH _0x200004A
000c21 ff07      	SBRS R16,7
000c22 c008      	RJMP _0x200004B
000c23 ff02      	SBRS R16,2
000c24 c004      	RJMP _0x200004C
000c25 7f0b      	ANDI R16,LOW(251)
000c26 2f24      	MOV  R18,R20
000c27 5011      	SUBI R17,LOW(1)
000c28 c001      	RJMP _0x200004D
                 _0x200004C:
000c29 e320      	LDI  R18,LOW(48)
                 _0x200004D:
000c2a c001      	RJMP _0x200004E
                 _0x200004B:
000c2b e220      	LDI  R18,LOW(32)
                 _0x200004E:
000c2c 940e 11d5 	CALL SUBOPT_0x49
000c2e 5051      	SUBI R21,LOW(1)
000c2f cfef      	RJMP _0x2000048
                 _0x200004A:
                 _0x2000047:
000c30 2f31      	MOV  R19,R17
000c31 ff01      	SBRS R16,1
000c32 c017      	RJMP _0x200004F
                 _0x2000050:
000c33 3030      	CPI  R19,0
000c34 f0a1      	BREQ _0x2000052
000c35 ff03      	SBRS R16,3
000c36 c006      	RJMP _0x2000053
000c37 81ee      	LDD  R30,Y+6
000c38 81ff      	LDD  R31,Y+6+1
000c39 9125      	LPM  R18,Z+
000c3a 83ee      	STD  Y+6,R30
000c3b 83ff      	STD  Y+6+1,R31
000c3c c005      	RJMP _0x2000054
                 _0x2000053:
000c3d 81ae      	LDD  R26,Y+6
000c3e 81bf      	LDD  R27,Y+6+1
000c3f 912d      	LD   R18,X+
000c40 83ae      	STD  Y+6,R26
000c41 83bf      	STD  Y+6+1,R27
                 _0x2000054:
000c42 940e 11d5 	CALL SUBOPT_0x49
000c44 3050      	CPI  R21,0
000c45 f009      	BREQ _0x2000055
000c46 5051      	SUBI R21,LOW(1)
                 _0x2000055:
000c47 5031      	SUBI R19,LOW(1)
000c48 cfea      	RJMP _0x2000050
                 _0x2000052:
000c49 c04b      	RJMP _0x2000056
                 _0x200004F:
                 _0x2000058:
000c4a e320      	LDI  R18,LOW(48)
000c4b 81ee      	LDD  R30,Y+6
000c4c 81ff      	LDD  R31,Y+6+1
000c4d 940e 1518 	CALL __GETW1PF
000c4f 87e8      	STD  Y+8,R30
000c50 87f9      	STD  Y+8+1,R31
000c51 81ee      	LDD  R30,Y+6
000c52 81ff      	LDD  R31,Y+6+1
000c53 9632      	ADIW R30,2
000c54 83ee      	STD  Y+6,R30
000c55 83ff      	STD  Y+6+1,R31
                 _0x200005A:
000c56 85e8      	LDD  R30,Y+8
000c57 85f9      	LDD  R31,Y+8+1
000c58 85aa      	LDD  R26,Y+10
000c59 85bb      	LDD  R27,Y+10+1
000c5a 17ae      	CP   R26,R30
000c5b 07bf      	CPC  R27,R31
000c5c f050      	BRLO _0x200005C
000c5d 5f2f      	SUBI R18,-LOW(1)
000c5e 85a8      	LDD  R26,Y+8
000c5f 85b9      	LDD  R27,Y+8+1
000c60 85ea      	LDD  R30,Y+10
000c61 85fb      	LDD  R31,Y+10+1
000c62 1bea      	SUB  R30,R26
000c63 0bfb      	SBC  R31,R27
000c64 87ea      	STD  Y+10,R30
000c65 87fb      	STD  Y+10+1,R31
000c66 cfef      	RJMP _0x200005A
                 _0x200005C:
000c67 332a      	CPI  R18,58
000c68 f028      	BRLO _0x200005D
000c69 ff03      	SBRS R16,3
000c6a c002      	RJMP _0x200005E
000c6b 5f29      	SUBI R18,-LOW(7)
000c6c c001      	RJMP _0x200005F
                 _0x200005E:
000c6d 5d29      	SUBI R18,-LOW(39)
                 _0x200005F:
                 _0x200005D:
000c6e fd04      	SBRC R16,4
000c6f c01a      	RJMP _0x2000061
000c70 3321      	CPI  R18,49
000c71 f420      	BRSH _0x2000063
000c72 85a8      	LDD  R26,Y+8
000c73 85b9      	LDD  R27,Y+8+1
000c74 9711      	SBIW R26,1
000c75 f409      	BRNE _0x2000062
                 _0x2000063:
000c76 c009      	RJMP _0x20000CA
                 _0x2000062:
000c77 1753      	CP   R21,R19
000c78 f010      	BRLO _0x2000067
000c79 ff00      	SBRS R16,0
000c7a c001      	RJMP _0x2000068
                 _0x2000067:
000c7b c013      	RJMP _0x2000066
                 _0x2000068:
000c7c e220      	LDI  R18,LOW(32)
000c7d ff07      	SBRS R16,7
000c7e c00b      	RJMP _0x2000069
000c7f e320      	LDI  R18,LOW(48)
                 _0x20000CA:
000c80 6100      	ORI  R16,LOW(16)
000c81 ff02      	SBRS R16,2
000c82 c007      	RJMP _0x200006A
000c83 7f0b      	ANDI R16,LOW(251)
000c84 934a      	ST   -Y,R20
000c85 940e 11e4 	CALL SUBOPT_0x4B
000c87 3050      	CPI  R21,0
000c88 f009      	BREQ _0x200006B
000c89 5051      	SUBI R21,LOW(1)
                 _0x200006B:
                 _0x200006A:
                 _0x2000069:
                 _0x2000061:
000c8a 940e 11d5 	CALL SUBOPT_0x49
000c8c 3050      	CPI  R21,0
000c8d f009      	BREQ _0x200006C
000c8e 5051      	SUBI R21,LOW(1)
                 _0x200006C:
                 _0x2000066:
000c8f 5031      	SUBI R19,LOW(1)
000c90 85a8      	LDD  R26,Y+8
000c91 85b9      	LDD  R27,Y+8+1
000c92 9712      	SBIW R26,2
000c93 f008      	BRLO _0x2000059
000c94 cfb5      	RJMP _0x2000058
                 _0x2000059:
                 _0x2000056:
000c95 ff00      	SBRS R16,0
000c96 c008      	RJMP _0x200006D
                 _0x200006E:
000c97 3050      	CPI  R21,0
000c98 f031      	BREQ _0x2000070
000c99 5051      	SUBI R21,LOW(1)
000c9a e2e0      	LDI  R30,LOW(32)
000c9b 93ea      	ST   -Y,R30
000c9c 940e 11e4 	CALL SUBOPT_0x4B
000c9e cff8      	RJMP _0x200006E
                 _0x2000070:
                 _0x200006D:
                 _0x2000071:
                 _0x2000030:
                 _0x20000C9:
000c9f e010      	LDI  R17,LOW(0)
                 _0x200001B:
000ca0 cedd      	RJMP _0x2000016
                 _0x2000018:
000ca1 85ac      	LDD  R26,Y+12
000ca2 85bd      	LDD  R27,Y+12+1
000ca3 940e 150f 	CALL __GETW1P
000ca5 940e 154e 	CALL __LOADLOCR6
000ca7 9664      	ADIW R28,20
000ca8 9508      	RET
                 _sprintf:
000ca9 92ff      	PUSH R15
000caa 2ef8      	MOV  R15,R24
000cab 9726      	SBIW R28,6
000cac 940e 1549 	CALL __SAVELOCR4
000cae 940e 11fe 	CALL SUBOPT_0x4E
000cb0 9730      	SBIW R30,0
000cb1 f419      	BRNE _0x2000072
000cb2 efef      	LDI  R30,LOW(65535)
000cb3 efff      	LDI  R31,HIGH(65535)
000cb4 c025      	RJMP _0x212000A
                 _0x2000072:
000cb5 01de      	MOVW R26,R28
000cb6 9616      	ADIW R26,6
000cb7 940e 14b9 	CALL __ADDW2R15
000cb9 018d      	MOVW R16,R26
000cba 940e 11fe 	CALL SUBOPT_0x4E
000cbc 83ee      	STD  Y+6,R30
000cbd 83ff      	STD  Y+6+1,R31
000cbe e0e0      	LDI  R30,LOW(0)
000cbf 87e8      	STD  Y+8,R30
000cc0 87e9      	STD  Y+8+1,R30
000cc1 01de      	MOVW R26,R28
000cc2 961a      	ADIW R26,10
000cc3 940e 14b9 	CALL __ADDW2R15
000cc5 940e 150f 	CALL __GETW1P
000cc7 93fa      	ST   -Y,R31
000cc8 93ea      	ST   -Y,R30
000cc9 931a      	ST   -Y,R17
000cca 930a      	ST   -Y,R16
000ccb e3ec      	LDI  R30,LOW(_put_buff_G100)
000ccc e0fb      	LDI  R31,HIGH(_put_buff_G100)
000ccd 93fa      	ST   -Y,R31
000cce 93ea      	ST   -Y,R30
000ccf 01fe      	MOVW R30,R28
000cd0 963a      	ADIW R30,10
000cd1 93fa      	ST   -Y,R31
000cd2 93ea      	ST   -Y,R30
000cd3 dea0      	RCALL __print_G100
000cd4 019f      	MOVW R18,R30
000cd5 81ae      	LDD  R26,Y+6
000cd6 81bf      	LDD  R27,Y+6+1
000cd7 e0e0      	LDI  R30,LOW(0)
000cd8 93ec      	ST   X,R30
000cd9 01f9      	MOVW R30,R18
                 _0x212000A:
000cda 940e 1550 	CALL __LOADLOCR4
000cdc 962a      	ADIW R28,10
000cdd 90ff      	POP  R15
000cde 9508      	RET
                 
                 	.CSEG
                 
                 	.DSEG
                 
                 	.CSEG
                 
                 	.CSEG
                 _ftrunc:
000cdf 817b         ldd  r23,y+3
000ce0 816a         ldd  r22,y+2
000ce1 81f9         ldd  r31,y+1
000ce2 81e8         ld   r30,y
000ce3 fb77         bst  r23,7
000ce4 0f77         lsl  r23
000ce5 fd67         sbrc r22,7
000ce6 6071         sbr  r23,1
000ce7 2f97         mov  r25,r23
000ce8 579e         subi r25,0x7e
000ce9 f081         breq __ftrunc0
000cea f078         brcs __ftrunc0
000ceb 3198         cpi  r25,24
000cec f490         brsh __ftrunc1
000ced 27aa         clr  r26
000cee 27bb         clr  r27
000cef 2788         clr  r24
                 __ftrunc2:
000cf0 9408         sec
000cf1 9587         ror  r24
000cf2 95b7         ror  r27
000cf3 95a7         ror  r26
000cf4 959a         dec  r25
000cf5 f7d1         brne __ftrunc2
000cf6 23ea         and  r30,r26
000cf7 23fb         and  r31,r27
000cf8 2368         and  r22,r24
000cf9 c005         rjmp __ftrunc1
                 __ftrunc0:
000cfa 94e8         clt
000cfb 2777         clr  r23
000cfc 27ee         clr  r30
000cfd 27ff         clr  r31
000cfe 2766         clr  r22
                 __ftrunc1:
000cff 776f         cbr  r22,0x80
000d00 9576         lsr  r23
000d01 f408         brcc __ftrunc3
000d02 6860         sbr  r22,0x80
                 __ftrunc3:
000d03 f977         bld  r23,7
000d04 91a9         ld   r26,y+
000d05 91b9         ld   r27,y+
000d06 9189         ld   r24,y+
000d07 9199         ld   r25,y+
000d08 17ea         cp   r30,r26
000d09 07fb         cpc  r31,r27
000d0a 0768         cpc  r22,r24
000d0b 0779         cpc  r23,r25
000d0c fb97         bst  r25,7
000d0d 9508         ret
                 _floor:
000d0e 940e 1205 	CALL SUBOPT_0x4F
000d10 940e 1526 	CALL __PUTPARD1
000d12 940e 0cdf 	CALL _ftrunc
000d14 940e 1521 	CALL __PUTD1S0
000d16 f419          brne __floor1
                 __floor0:
000d17 940e 1205 	CALL SUBOPT_0x4F
000d19 c005      	RJMP _0x2120009
                 __floor1:
000d1a f7e6          brtc __floor0
000d1b 940e 1205 	CALL SUBOPT_0x4F
000d1d 940e 1208 	CALL SUBOPT_0x50
                 _0x2120009:
000d1f 9624      	ADIW R28,4
000d20 9508      	RET
                 _log:
000d21 9724      	SBIW R28,4
000d22 931a      	ST   -Y,R17
000d23 930a      	ST   -Y,R16
000d24 940e 120f 	CALL SUBOPT_0x51
000d26 940e 153c 	CALL __CPD02
000d28 f02c      	BRLT _0x204000C
                +
000d29 efef     +LDI R30 , LOW ( 0xFF7FFFFF )
000d2a efff     +LDI R31 , HIGH ( 0xFF7FFFFF )
000d2b e76f     +LDI R22 , BYTE3 ( 0xFF7FFFFF )
000d2c ef7f     +LDI R23 , BYTE4 ( 0xFF7FFFFF )
                 	__GETD1N 0xFF7FFFFF
000d2d c077      	RJMP _0x2120008
                 _0x204000C:
000d2e 940e 1214 	CALL SUBOPT_0x52
000d30 940e 1526 	CALL __PUTPARD1
000d32 b7ed      	IN   R30,SPL
000d33 b7fe      	IN   R31,SPH
000d34 9731      	SBIW R30,1
000d35 93fa      	ST   -Y,R31
000d36 93ea      	ST   -Y,R30
000d37 931f      	PUSH R17
000d38 930f      	PUSH R16
000d39 940e 12ef 	CALL _frexp
000d3b 910f      	POP  R16
000d3c 911f      	POP  R17
000d3d 940e 1219 	CALL SUBOPT_0x53
000d3f 940e 120f 	CALL SUBOPT_0x51
                +
000d41 efe3     +LDI R30 , LOW ( 0x3F3504F3 )
000d42 e0f4     +LDI R31 , HIGH ( 0x3F3504F3 )
000d43 e365     +LDI R22 , BYTE3 ( 0x3F3504F3 )
000d44 e37f     +LDI R23 , BYTE4 ( 0x3F3504F3 )
                 	__GETD1N 0x3F3504F3
000d45 940e 1499 	CALL __CMPF12
000d47 f440      	BRSH _0x204000D
000d48 940e 121e 	CALL SUBOPT_0x54
000d4a 940e 13b6 	CALL __ADDF12
000d4c 940e 1219 	CALL SUBOPT_0x53
                +
000d4e 5001     +SUBI R16 , LOW ( 1 )
000d4f 4010     +SBCI R17 , HIGH ( 1 )
                 	__SUBWRN 16,17,1
                 _0x204000D:
000d50 940e 1214 	CALL SUBOPT_0x52
000d52 940e 1208 	CALL SUBOPT_0x50
000d54 937f      	PUSH R23
000d55 936f      	PUSH R22
000d56 93ff      	PUSH R31
000d57 93ef      	PUSH R30
000d58 940e 1214 	CALL SUBOPT_0x52
                +
000d5a e0a0     +LDI R26 , LOW ( 0x3F800000 )
000d5b e0b0     +LDI R27 , HIGH ( 0x3F800000 )
000d5c e880     +LDI R24 , BYTE3 ( 0x3F800000 )
000d5d e39f     +LDI R25 , BYTE4 ( 0x3F800000 )
                 	__GETD2N 0x3F800000
000d5e 940e 13b6 	CALL __ADDF12
000d60 91af      	POP  R26
000d61 91bf      	POP  R27
000d62 918f      	POP  R24
000d63 919f      	POP  R25
000d64 940e 1454 	CALL __DIVF21
000d66 940e 1219 	CALL SUBOPT_0x53
000d68 940e 121e 	CALL SUBOPT_0x54
000d6a 940e 1220 	CALL SUBOPT_0x55
                +
000d6c e2a6     +LDI R26 , LOW ( 0x3F654226 )
000d6d e4b2     +LDI R27 , HIGH ( 0x3F654226 )
000d6e e685     +LDI R24 , BYTE3 ( 0x3F654226 )
000d6f e39f     +LDI R25 , BYTE4 ( 0x3F654226 )
                 	__GETD2N 0x3F654226
000d70 940e 1406 	CALL __MULF12
000d72 01df      	MOVW R26,R30
000d73 01cb      	MOVW R24,R22
                +
000d74 e4ee     +LDI R30 , LOW ( 0x4054114E )
000d75 e1f1     +LDI R31 , HIGH ( 0x4054114E )
000d76 e564     +LDI R22 , BYTE3 ( 0x4054114E )
000d77 e470     +LDI R23 , BYTE4 ( 0x4054114E )
                 	__GETD1N 0x4054114E
000d78 940e 1227 	CALL SUBOPT_0x56
000d7a 940e 120f 	CALL SUBOPT_0x51
000d7c 940e 1406 	CALL __MULF12
000d7e 937f      	PUSH R23
000d7f 936f      	PUSH R22
000d80 93ff      	PUSH R31
000d81 93ef      	PUSH R30
000d82 940e 122c 	CALL SUBOPT_0x57
                +
000d84 e4ad     +LDI R26 , LOW ( 0x3FD4114D )
000d85 e1b1     +LDI R27 , HIGH ( 0x3FD4114D )
000d86 ed84     +LDI R24 , BYTE3 ( 0x3FD4114D )
000d87 e39f     +LDI R25 , BYTE4 ( 0x3FD4114D )
                 	__GETD2N 0x3FD4114D
000d88 940e 13af 	CALL __SUBF12
000d8a 91af      	POP  R26
000d8b 91bf      	POP  R27
000d8c 918f      	POP  R24
000d8d 919f      	POP  R25
000d8e 940e 1454 	CALL __DIVF21
000d90 937f      	PUSH R23
000d91 936f      	PUSH R22
000d92 93ff      	PUSH R31
000d93 93ef      	PUSH R30
000d94 01f8      	MOVW R30,R16
000d95 940e 14c9 	CALL __CWD1
000d97 940e 137c 	CALL __CDF1
                +
000d99 e1a8     +LDI R26 , LOW ( 0x3F317218 )
000d9a e7b2     +LDI R27 , HIGH ( 0x3F317218 )
000d9b e381     +LDI R24 , BYTE3 ( 0x3F317218 )
000d9c e39f     +LDI R25 , BYTE4 ( 0x3F317218 )
                 	__GETD2N 0x3F317218
000d9d 940e 1406 	CALL __MULF12
000d9f 91af      	POP  R26
000da0 91bf      	POP  R27
000da1 918f      	POP  R24
000da2 919f      	POP  R25
000da3 940e 13b6 	CALL __ADDF12
                 _0x2120008:
000da5 8119      	LDD  R17,Y+1
000da6 8108      	LDD  R16,Y+0
000da7 962a      	ADIW R28,10
000da8 9508      	RET
                 _exp:
000da9 9728      	SBIW R28,8
000daa 931a      	ST   -Y,R17
000dab 930a      	ST   -Y,R16
000dac 940e 1231 	CALL SUBOPT_0x58
                +
000dae e5e0     +LDI R30 , LOW ( 0xC2AEAC50 )
000daf eafc     +LDI R31 , HIGH ( 0xC2AEAC50 )
000db0 ea6e     +LDI R22 , BYTE3 ( 0xC2AEAC50 )
000db1 ec72     +LDI R23 , BYTE4 ( 0xC2AEAC50 )
                 	__GETD1N 0xC2AEAC50
000db2 940e 1499 	CALL __CMPF12
000db4 f418      	BRSH _0x204000F
000db5 940e 1236 	CALL SUBOPT_0x59
000db7 c088      	RJMP _0x2120007
                 _0x204000F:
                +
000db8 85ea     +LDD R30 , Y + 10
000db9 85fb     +LDD R31 , Y + 10 + 1
000dba 856c     +LDD R22 , Y + 10 + 2
000dbb 857d     +LDD R23 , Y + 10 + 3
                 	__GETD1S 10
000dbc 940e 1538 	CALL __CPD10
000dbe f429      	BRNE _0x2040010
                +
000dbf e0e0     +LDI R30 , LOW ( 0x3F800000 )
000dc0 e0f0     +LDI R31 , HIGH ( 0x3F800000 )
000dc1 e860     +LDI R22 , BYTE3 ( 0x3F800000 )
000dc2 e37f     +LDI R23 , BYTE4 ( 0x3F800000 )
                 	__GETD1N 0x3F800000
000dc3 c07c      	RJMP _0x2120007
                 _0x2040010:
000dc4 940e 1231 	CALL SUBOPT_0x58
                +
000dc6 e1e8     +LDI R30 , LOW ( 0x42B17218 )
000dc7 e7f2     +LDI R31 , HIGH ( 0x42B17218 )
000dc8 eb61     +LDI R22 , BYTE3 ( 0x42B17218 )
000dc9 e472     +LDI R23 , BYTE4 ( 0x42B17218 )
                 	__GETD1N 0x42B17218
000dca 940e 1499 	CALL __CMPF12
000dcc f009      	BREQ PC+2
000dcd f410      	BRCC PC+3
000dce 940c 0dd5 	JMP  _0x2040011
                +
000dd0 efef     +LDI R30 , LOW ( 0x7F7FFFFF )
000dd1 efff     +LDI R31 , HIGH ( 0x7F7FFFFF )
000dd2 e76f     +LDI R22 , BYTE3 ( 0x7F7FFFFF )
000dd3 e77f     +LDI R23 , BYTE4 ( 0x7F7FFFFF )
                 	__GETD1N 0x7F7FFFFF
000dd4 c06b      	RJMP _0x2120007
                 _0x2040011:
000dd5 940e 1231 	CALL SUBOPT_0x58
                +
000dd7 e3eb     +LDI R30 , LOW ( 0x3FB8AA3B )
000dd8 eafa     +LDI R31 , HIGH ( 0x3FB8AA3B )
000dd9 eb68     +LDI R22 , BYTE3 ( 0x3FB8AA3B )
000dda e37f     +LDI R23 , BYTE4 ( 0x3FB8AA3B )
                 	__GETD1N 0x3FB8AA3B
000ddb 940e 1406 	CALL __MULF12
                +
000ddd 87ea     +STD Y + 10 , R30
000dde 87fb     +STD Y + 10 + 1 , R31
000ddf 876c     +STD Y + 10 + 2 , R22
000de0 877d     +STD Y + 10 + 3 , R23
                 	__PUTD1S 10
000de1 940e 1526 	CALL __PUTPARD1
000de3 df2a      	RCALL _floor
000de4 940e 1345 	CALL __CFD1
000de6 018f      	MOVW R16,R30
000de7 01f8      	MOVW R30,R16
000de8 940e 1231 	CALL SUBOPT_0x58
000dea 940e 14c9 	CALL __CWD1
000dec 940e 137c 	CALL __CDF1
000dee 940e 1227 	CALL SUBOPT_0x56
000df0 01df      	MOVW R26,R30
000df1 01cb      	MOVW R24,R22
                +
000df2 e0e0     +LDI R30 , LOW ( 0x3F000000 )
000df3 e0f0     +LDI R31 , HIGH ( 0x3F000000 )
000df4 e060     +LDI R22 , BYTE3 ( 0x3F000000 )
000df5 e37f     +LDI R23 , BYTE4 ( 0x3F000000 )
                 	__GETD1N 0x3F000000
000df6 940e 1227 	CALL SUBOPT_0x56
000df8 940e 1219 	CALL SUBOPT_0x53
000dfa 940e 121e 	CALL SUBOPT_0x54
000dfc 940e 1220 	CALL SUBOPT_0x55
                +
000dfe e6ad     +LDI R26 , LOW ( 0x3D6C4C6D )
000dff e4bc     +LDI R27 , HIGH ( 0x3D6C4C6D )
000e00 e68c     +LDI R24 , BYTE3 ( 0x3D6C4C6D )
000e01 e39d     +LDI R25 , BYTE4 ( 0x3D6C4C6D )
                 	__GETD2N 0x3D6C4C6D
000e02 940e 1406 	CALL __MULF12
                +
000e04 eaa6     +LDI R26 , LOW ( 0x40E6E3A6 )
000e05 eeb3     +LDI R27 , HIGH ( 0x40E6E3A6 )
000e06 ee86     +LDI R24 , BYTE3 ( 0x40E6E3A6 )
000e07 e490     +LDI R25 , BYTE4 ( 0x40E6E3A6 )
                 	__GETD2N 0x40E6E3A6
000e08 940e 13b6 	CALL __ADDF12
000e0a 940e 120f 	CALL SUBOPT_0x51
000e0c 940e 1406 	CALL __MULF12
000e0e 940e 1219 	CALL SUBOPT_0x53
000e10 940e 122c 	CALL SUBOPT_0x57
                +
000e12 e2a8     +LDI R26 , LOW ( 0x41A68D28 )
000e13 e8bd     +LDI R27 , HIGH ( 0x41A68D28 )
000e14 ea86     +LDI R24 , BYTE3 ( 0x41A68D28 )
000e15 e491     +LDI R25 , BYTE4 ( 0x41A68D28 )
                 	__GETD2N 0x41A68D28
000e16 940e 13b6 	CALL __ADDF12
                +
000e18 83ea     +STD Y + 2 , R30
000e19 83fb     +STD Y + 2 + 1 , R31
000e1a 836c     +STD Y + 2 + 2 , R22
000e1b 837d     +STD Y + 2 + 3 , R23
                 	__PUTD1S 2
000e1c 940e 1214 	CALL SUBOPT_0x52
                +
000e1e 81aa     +LDD R26 , Y + 2
000e1f 81bb     +LDD R27 , Y + 2 + 1
000e20 818c     +LDD R24 , Y + 2 + 2
000e21 819d     +LDD R25 , Y + 2 + 3
                 	__GETD2S 2
000e22 940e 13b6 	CALL __ADDF12
                +
000e24 efa3     +LDI R26 , LOW ( 0x3FB504F3 )
000e25 e0b4     +LDI R27 , HIGH ( 0x3FB504F3 )
000e26 eb85     +LDI R24 , BYTE3 ( 0x3FB504F3 )
000e27 e39f     +LDI R25 , BYTE4 ( 0x3FB504F3 )
                 	__GETD2N 0x3FB504F3
000e28 940e 1406 	CALL __MULF12
000e2a 937f      	PUSH R23
000e2b 936f      	PUSH R22
000e2c 93ff      	PUSH R31
000e2d 93ef      	PUSH R30
000e2e 940e 120f 	CALL SUBOPT_0x51
000e30 940e 122c 	CALL SUBOPT_0x57
000e32 940e 13af 	CALL __SUBF12
000e34 91af      	POP  R26
000e35 91bf      	POP  R27
000e36 918f      	POP  R24
000e37 919f      	POP  R25
000e38 940e 1454 	CALL __DIVF21
000e3a 940e 1526 	CALL __PUTPARD1
000e3c 931a      	ST   -Y,R17
000e3d 930a      	ST   -Y,R16
000e3e 940e 1302 	CALL _ldexp
                 _0x2120007:
000e40 8119      	LDD  R17,Y+1
000e41 8108      	LDD  R16,Y+0
000e42 962e      	ADIW R28,14
000e43 9508      	RET
                 _pow:
000e44 9724      	SBIW R28,4
000e45 940e 123b 	CALL SUBOPT_0x5A
000e47 940e 1538 	CALL __CPD10
000e49 f419      	BRNE _0x2040012
000e4a 940e 1236 	CALL SUBOPT_0x59
000e4c c03f      	RJMP _0x2120006
                 _0x2040012:
                +
000e4d 85a8     +LDD R26 , Y + 8
000e4e 85b9     +LDD R27 , Y + 8 + 1
000e4f 858a     +LDD R24 , Y + 8 + 2
000e50 859b     +LDD R25 , Y + 8 + 3
                 	__GETD2S 8
000e51 940e 153c 	CALL __CPD02
000e53 f47c      	BRGE _0x2040013
000e54 940e 1240 	CALL SUBOPT_0x5B
000e56 940e 1538 	CALL __CPD10
000e58 f429      	BRNE _0x2040014
                +
000e59 e0e0     +LDI R30 , LOW ( 0x3F800000 )
000e5a e0f0     +LDI R31 , HIGH ( 0x3F800000 )
000e5b e860     +LDI R22 , BYTE3 ( 0x3F800000 )
000e5c e37f     +LDI R23 , BYTE4 ( 0x3F800000 )
                 	__GETD1N 0x3F800000
000e5d c02e      	RJMP _0x2120006
                 _0x2040014:
000e5e 940e 123b 	CALL SUBOPT_0x5A
000e60 940e 1245 	CALL SUBOPT_0x5C
000e62 c029      	RJMP _0x2120006
                 _0x2040013:
000e63 940e 1240 	CALL SUBOPT_0x5B
000e65 01de      	MOVW R26,R28
000e66 940e 1345 	CALL __CFD1
000e68 940e 1513 	CALL __PUTDP1
000e6a 940e 1205 	CALL SUBOPT_0x4F
000e6c 940e 137c 	CALL __CDF1
000e6e 01df      	MOVW R26,R30
000e6f 01cb      	MOVW R24,R22
000e70 940e 1240 	CALL SUBOPT_0x5B
000e72 940e 1542 	CALL __CPD12
000e74 f019      	BREQ _0x2040015
000e75 940e 1236 	CALL SUBOPT_0x59
000e77 c014      	RJMP _0x2120006
                 _0x2040015:
000e78 940e 123b 	CALL SUBOPT_0x5A
000e7a 940e 1310 	CALL __ANEGF1
000e7c 940e 1245 	CALL SUBOPT_0x5C
                +
000e7e 87e8     +STD Y + 8 , R30
000e7f 87f9     +STD Y + 8 + 1 , R31
000e80 876a     +STD Y + 8 + 2 , R22
000e81 877b     +STD Y + 8 + 3 , R23
                 	__PUTD1S 8
000e82 81e8      	LD   R30,Y
000e83 70e1      	ANDI R30,LOW(0x1)
000e84 f419      	BRNE _0x2040016
000e85 940e 123b 	CALL SUBOPT_0x5A
000e87 c004      	RJMP _0x2120006
                 _0x2040016:
000e88 940e 123b 	CALL SUBOPT_0x5A
000e8a 940e 1310 	CALL __ANEGF1
                 _0x2120006:
000e8c 962c      	ADIW R28,12
000e8d 9508      	RET
                 
                 	.CSEG
                 _strlen:
000e8e 91a9          ld   r26,y+
000e8f 91b9          ld   r27,y+
000e90 27ee          clr  r30
000e91 27ff          clr  r31
                 strlen0:
000e92 916d          ld   r22,x+
000e93 2366          tst  r22
000e94 f011          breq strlen1
000e95 9631          adiw r30,1
000e96 cffb          rjmp strlen0
                 strlen1:
000e97 9508          ret
                 _strlenf:
000e98 27aa          clr  r26
000e99 27bb          clr  r27
000e9a 91e9          ld   r30,y+
000e9b 91f9          ld   r31,y+
                 strlenf0:
000e9c 9005      	lpm  r0,z+
000e9d 2000          tst  r0
000e9e f011          breq strlenf1
000e9f 9611          adiw r26,1
000ea0 cffb          rjmp strlenf0
                 strlenf1:
000ea1 01fd          movw r30,r26
000ea2 9508          ret
                 	#ifndef __SLEEP_DEFINED__
                 	#endif
                 
                 	.DSEG
                 
                 	.CSEG
                 __lcd_write_nibble_G104:
000ea3 81e8      	LD   R30,Y
000ea4 71e0      	ANDI R30,LOW(0x10)
000ea5 f011      	BREQ _0x2080004
000ea6 9aac      	SBI  0x15,4
000ea7 c001      	RJMP _0x2080005
                 _0x2080004:
000ea8 98ac      	CBI  0x15,4
                 _0x2080005:
000ea9 81e8      	LD   R30,Y
000eaa 72e0      	ANDI R30,LOW(0x20)
000eab f011      	BREQ _0x2080006
000eac 9aad      	SBI  0x15,5
000ead c001      	RJMP _0x2080007
                 _0x2080006:
000eae 98ad      	CBI  0x15,5
                 _0x2080007:
000eaf 81e8      	LD   R30,Y
000eb0 74e0      	ANDI R30,LOW(0x40)
000eb1 f011      	BREQ _0x2080008
000eb2 9aae      	SBI  0x15,6
000eb3 c001      	RJMP _0x2080009
                 _0x2080008:
000eb4 98ae      	CBI  0x15,6
                 _0x2080009:
000eb5 81e8      	LD   R30,Y
000eb6 78e0      	ANDI R30,LOW(0x80)
000eb7 f011      	BREQ _0x208000A
000eb8 9aaf      	SBI  0x15,7
000eb9 c001      	RJMP _0x208000B
                 _0x208000A:
000eba 98af      	CBI  0x15,7
                 _0x208000B:
                +
000ebb e08b     +LDI R24 , LOW ( 11 )
                +__DELAY_USB_LOOP :
000ebc 958a     +DEC R24
000ebd f7f1     +BRNE __DELAY_USB_LOOP
                 	__DELAY_USB 11
000ebe 9aaa      	SBI  0x15,2
                +
000ebf e18b     +LDI R24 , LOW ( 27 )
                +__DELAY_USB_LOOP :
000ec0 958a     +DEC R24
000ec1 f7f1     +BRNE __DELAY_USB_LOOP
                 	__DELAY_USB 27
000ec2 98aa      	CBI  0x15,2
                +
000ec3 e18b     +LDI R24 , LOW ( 27 )
                +__DELAY_USB_LOOP :
000ec4 958a     +DEC R24
000ec5 f7f1     +BRNE __DELAY_USB_LOOP
                 	__DELAY_USB 27
000ec6 c0a9      	RJMP _0x2120005
                 __lcd_write_data:
000ec7 81e8      	LD   R30,Y
000ec8 93ea      	ST   -Y,R30
000ec9 dfd9      	RCALL __lcd_write_nibble_G104
000eca 81e8          ld    r30,y
000ecb 95e2          swap  r30
000ecc 83e8          st    y,r30
000ecd 81e8      	LD   R30,Y
000ece 93ea      	ST   -Y,R30
000ecf dfd3      	RCALL __lcd_write_nibble_G104
                +
000ed0 ec88     +LDI R24 , LOW ( 200 )
000ed1 e090     +LDI R25 , HIGH ( 200 )
                +__DELAY_USW_LOOP :
000ed2 9701     +SBIW R24 , 1
000ed3 f7f1     +BRNE __DELAY_USW_LOOP
                 	__DELAY_USW 200
000ed4 c09b      	RJMP _0x2120005
                 _lcd_gotoxy:
000ed5 81e8      	LD   R30,Y
000ed6 e0f0      	LDI  R31,0
000ed7 57ea      	SUBI R30,LOW(-__base_y_G104)
000ed8 4ff9      	SBCI R31,HIGH(-__base_y_G104)
000ed9 81e0      	LD   R30,Z
000eda 81a9      	LDD  R26,Y+1
000edb 0fea      	ADD  R30,R26
000edc 93ea      	ST   -Y,R30
000edd dfe9      	RCALL __lcd_write_data
000ede 81e9      	LDD  R30,Y+1
000edf 93e0 068a 	STS  __lcd_x,R30
000ee1 81e8      	LD   R30,Y
000ee2 93e0 068b 	STS  __lcd_y,R30
000ee4 9622      	ADIW R28,2
000ee5 9508      	RET
                 _lcd_clear:
000ee6 e0e2      	LDI  R30,LOW(2)
000ee7 93ea      	ST   -Y,R30
000ee8 dfde      	RCALL __lcd_write_data
000ee9 940e 1180 	CALL SUBOPT_0x3D
000eeb 940e 12e3 	CALL _delay_ms
000eed e0ec      	LDI  R30,LOW(12)
000eee 93ea      	ST   -Y,R30
000eef dfd7      	RCALL __lcd_write_data
000ef0 e0e1      	LDI  R30,LOW(1)
000ef1 93ea      	ST   -Y,R30
000ef2 dfd4      	RCALL __lcd_write_data
000ef3 940e 1180 	CALL SUBOPT_0x3D
000ef5 940e 12e3 	CALL _delay_ms
000ef7 e0e0      	LDI  R30,LOW(0)
000ef8 93e0 068b 	STS  __lcd_y,R30
000efa 93e0 068a 	STS  __lcd_x,R30
000efc 9508      	RET
                 _lcd_putchar:
000efd 81a8      	LD   R26,Y
000efe 30aa      	CPI  R26,LOW(0xA)
000eff f031      	BREQ _0x2080011
000f00 91e0 068c 	LDS  R30,__lcd_maxx
000f02 91a0 068a 	LDS  R26,__lcd_x
000f04 17ae      	CP   R26,R30
000f05 f068      	BRLO _0x2080010
                 _0x2080011:
000f06 e0e0      	LDI  R30,LOW(0)
000f07 93ea      	ST   -Y,R30
000f08 91e0 068b 	LDS  R30,__lcd_y
000f0a 5fef      	SUBI R30,-LOW(1)
000f0b 93e0 068b 	STS  __lcd_y,R30
000f0d 93ea      	ST   -Y,R30
000f0e dfc6      	RCALL _lcd_gotoxy
000f0f 81a8      	LD   R26,Y
000f10 30aa      	CPI  R26,LOW(0xA)
000f11 f409      	BRNE _0x2080013
000f12 c05d      	RJMP _0x2120005
                 _0x2080013:
                 _0x2080010:
000f13 91e0 068a 	LDS  R30,__lcd_x
000f15 5fef      	SUBI R30,-LOW(1)
000f16 93e0 068a 	STS  __lcd_x,R30
000f18 9aa8      	SBI  0x15,0
000f19 81e8      	LD   R30,Y
000f1a 93ea      	ST   -Y,R30
000f1b dfab      	RCALL __lcd_write_data
000f1c 98a8      	CBI  0x15,0
000f1d c052      	RJMP _0x2120005
                 _lcd_puts:
000f1e 931a      	ST   -Y,R17
                 _0x2080014:
000f1f 81a9      	LDD  R26,Y+1
000f20 81ba      	LDD  R27,Y+1+1
000f21 91ed      	LD   R30,X+
000f22 83a9      	STD  Y+1,R26
000f23 83ba      	STD  Y+1+1,R27
000f24 2f1e      	MOV  R17,R30
000f25 30e0      	CPI  R30,0
000f26 f019      	BREQ _0x2080016
000f27 931a      	ST   -Y,R17
000f28 dfd4      	RCALL _lcd_putchar
000f29 cff5      	RJMP _0x2080014
                 _0x2080016:
000f2a 8118      	LDD  R17,Y+0
000f2b c096      	RJMP _0x2120003
                 _lcd_putsf:
000f2c 931a      	ST   -Y,R17
                 _0x2080017:
000f2d 81e9      	LDD  R30,Y+1
000f2e 81fa      	LDD  R31,Y+1+1
000f2f 9631      	ADIW R30,1
000f30 83e9      	STD  Y+1,R30
000f31 83fa      	STD  Y+1+1,R31
000f32 9731      	SBIW R30,1
000f33 91e4      	LPM  R30,Z
000f34 2f1e      	MOV  R17,R30
000f35 30e0      	CPI  R30,0
000f36 f019      	BREQ _0x2080019
000f37 931a      	ST   -Y,R17
000f38 dfc4      	RCALL _lcd_putchar
000f39 cff3      	RJMP _0x2080017
                 _0x2080019:
000f3a 8118      	LDD  R17,Y+0
000f3b c086      	RJMP _0x2120003
                 _lcd_init:
000f3c 9aa4      	SBI  0x14,4
000f3d 9aa5      	SBI  0x14,5
000f3e 9aa6      	SBI  0x14,6
000f3f 9aa7      	SBI  0x14,7
000f40 9aa2      	SBI  0x14,2
000f41 9aa0      	SBI  0x14,0
000f42 9aa1      	SBI  0x14,1
000f43 98aa      	CBI  0x15,2
000f44 98a8      	CBI  0x15,0
000f45 98a9      	CBI  0x15,1
000f46 81e8      	LD   R30,Y
000f47 93e0 068c 	STS  __lcd_maxx,R30
000f49 58e0      	SUBI R30,-LOW(128)
                +
000f4a 93e0 0688+STS __base_y_G104 + ( 2 ) , R30
                 	__PUTB1MN __base_y_G104,2
000f4c 81e8      	LD   R30,Y
000f4d 54e0      	SUBI R30,-LOW(192)
                +
000f4e 93e0 0689+STS __base_y_G104 + ( 3 ) , R30
                 	__PUTB1MN __base_y_G104,3
000f50 e1e4      	LDI  R30,LOW(20)
000f51 e0f0      	LDI  R31,HIGH(20)
000f52 93fa      	ST   -Y,R31
000f53 93ea      	ST   -Y,R30
000f54 940e 12e3 	CALL _delay_ms
000f56 940e 1253 	CALL SUBOPT_0x5D
000f58 940e 1253 	CALL SUBOPT_0x5D
000f5a 940e 1253 	CALL SUBOPT_0x5D
000f5c e2e0      	LDI  R30,LOW(32)
000f5d 93ea      	ST   -Y,R30
000f5e df44      	RCALL __lcd_write_nibble_G104
                +
000f5f e980     +LDI R24 , LOW ( 400 )
000f60 e091     +LDI R25 , HIGH ( 400 )
                +__DELAY_USW_LOOP :
000f61 9701     +SBIW R24 , 1
000f62 f7f1     +BRNE __DELAY_USW_LOOP
                 	__DELAY_USW 400
000f63 e2e8      	LDI  R30,LOW(40)
000f64 93ea      	ST   -Y,R30
000f65 df61      	RCALL __lcd_write_data
000f66 e0e4      	LDI  R30,LOW(4)
000f67 93ea      	ST   -Y,R30
000f68 df5e      	RCALL __lcd_write_data
000f69 e8e5      	LDI  R30,LOW(133)
000f6a 93ea      	ST   -Y,R30
000f6b df5b      	RCALL __lcd_write_data
000f6c e0e6      	LDI  R30,LOW(6)
000f6d 93ea      	ST   -Y,R30
000f6e df58      	RCALL __lcd_write_data
000f6f df76      	RCALL _lcd_clear
                 _0x2120005:
000f70 9621      	ADIW R28,1
000f71 9508      	RET
                 
                 	.CSEG
                 _rtc_init:
000f72 81ea      	LDD  R30,Y+2
000f73 70e3      	ANDI R30,LOW(0x3)
000f74 83ea      	STD  Y+2,R30
000f75 81e9      	LDD  R30,Y+1
000f76 30e0      	CPI  R30,0
000f77 f019      	BREQ _0x20A0003
000f78 81ea      	LDD  R30,Y+2
000f79 61e0      	ORI  R30,0x10
000f7a 83ea      	STD  Y+2,R30
                 _0x20A0003:
000f7b 81e8      	LD   R30,Y
000f7c 30e0      	CPI  R30,0
000f7d f019      	BREQ _0x20A0004
000f7e 81ea      	LDD  R30,Y+2
000f7f 68e0      	ORI  R30,0x80
000f80 83ea      	STD  Y+2,R30
                 _0x20A0004:
000f81 940e 125c 	CALL SUBOPT_0x5E
000f83 e0e7      	LDI  R30,LOW(7)
000f84 940e 1262 	CALL SUBOPT_0x5F
000f86 c036      	RJMP _0x2120002
                 _rtc_get_time:
000f87 940e 125c 	CALL SUBOPT_0x5E
000f89 e0e0      	LDI  R30,LOW(0)
000f8a 940e 1267 	CALL SUBOPT_0x60
000f8c 81a8      	LD   R26,Y
000f8d 81b9      	LDD  R27,Y+1
000f8e 940e 1277 	CALL SUBOPT_0x61
000f90 81ac      	LDD  R26,Y+4
000f91 81bd      	LDD  R27,Y+4+1
000f92 c017      	RJMP _0x2120004
                 _rtc_set_time:
000f93 940e 125c 	CALL SUBOPT_0x5E
000f95 e0e0      	LDI  R30,LOW(0)
000f96 93ea      	ST   -Y,R30
000f97 940e 12ca 	CALL _i2c_write
000f99 81e8      	LD   R30,Y
000f9a 940e 1289 	CALL SUBOPT_0x62
000f9c 940e 1262 	CALL SUBOPT_0x5F
000f9e c01b      	RJMP _0x2120001
                 _rtc_get_date:
000f9f 940e 125c 	CALL SUBOPT_0x5E
000fa1 e0e4      	LDI  R30,LOW(4)
000fa2 940e 1267 	CALL SUBOPT_0x60
000fa4 81ac      	LDD  R26,Y+4
000fa5 81bd      	LDD  R27,Y+4+1
000fa6 940e 1277 	CALL SUBOPT_0x61
000fa8 81a8      	LD   R26,Y
000fa9 81b9      	LDD  R27,Y+1
                 _0x2120004:
000faa 93ec      	ST   X,R30
000fab 940e 12a5 	CALL _i2c_stop
000fad 9626      	ADIW R28,6
000fae 9508      	RET
                 _rtc_set_date:
000faf 940e 125c 	CALL SUBOPT_0x5E
000fb1 e0e4      	LDI  R30,LOW(4)
000fb2 940e 1262 	CALL SUBOPT_0x5F
000fb4 940e 1289 	CALL SUBOPT_0x62
000fb6 93ea      	ST   -Y,R30
000fb7 940e 12ca 	CALL _i2c_write
000fb9 81e8      	LD   R30,Y
                 _0x2120001:
000fba 93ea      	ST   -Y,R30
000fbb 940e 0fd0 	CALL _bin2bcd
                 _0x2120002:
000fbd 93ea      	ST   -Y,R30
000fbe 940e 12ca 	CALL _i2c_write
000fc0 940e 12a5 	CALL _i2c_stop
                 _0x2120003:
000fc2 9623      	ADIW R28,3
000fc3 9508      	RET
                 	#ifndef __SLEEP_DEFINED__
                 	#endif
                 
                 	.CSEG
                 
                 	.CSEG
                 
                 	.CSEG
                 _bcd2bin:
000fc4 81e8          ld   r30,y
000fc5 95e2          swap r30
000fc6 70ef          andi r30,0xf
000fc7 2fae          mov  r26,r30
000fc8 0faa          lsl  r26
000fc9 0faa          lsl  r26
000fca 0fea          add  r30,r26
000fcb 0fee          lsl  r30
000fcc 91a9          ld   r26,y+
000fcd 70af          andi r26,0xf
000fce 0fea          add  r30,r26
000fcf 9508          ret
                 _bin2bcd:
000fd0 91a9          ld   r26,y+
000fd1 27ee          clr  r30
                 bin2bcd0:
000fd2 50aa          subi r26,10
000fd3 f012          brmi bin2bcd1
000fd4 5fe0          subi r30,-16
000fd5 cffc          rjmp bin2bcd0
                 bin2bcd1:
000fd6 5fa6          subi r26,-10
000fd7 0fea          add  r30,r26
000fd8 9508          ret
                 
                 	.DSEG
                 _temp_voltage:
00058f           	.BYTE 0x2
                 _temp_current:
000591           	.BYTE 0x2
                 _set_voltage:
000593           	.BYTE 0x4
                 _set_current:
000597           	.BYTE 0x4
                 _actual_voltage_G000:
00059b           	.BYTE 0x2
                 _actual_btcurrentdp_G000:
00059d           	.BYTE 0x2
                 _actual_btcurrentip_G000:
00059f           	.BYTE 0x2
                 _actual_ipvoltage_G000:
0005a1           	.BYTE 0x2
                 _actual_opcurrentdp_G000:
0005a3           	.BYTE 0x2
                 _actual_opcurrentip_G000:
0005a5           	.BYTE 0x2
                 _set_flag:
0005a7           	.BYTE 0x2
                 _flag:
0005a9           	.BYTE 0x2
                 _n:
0005ab           	.BYTE 0x2
                 _main_screen_trigger:
0005ad           	.BYTE 0x2
                 _ms_update_flag:
0005af           	.BYTE 0x2
                 _current_mainscreen_flag:
0005b1           	.BYTE 0x2
                 _status:
0005b3           	.BYTE 0x2
                 _fault_flag:
0005b5           	.BYTE 0x2
                 _rtc_display_counter:
0005b7           	.BYTE 0x2
                 _hour:
0005b9           	.BYTE 0x1
                 _minute:
0005ba           	.BYTE 0x1
                 _second:
0005bb           	.BYTE 0x1
                 _date:
0005bc           	.BYTE 0x1
                 _month:
0005bd           	.BYTE 0x1
                 _year:
0005be           	.BYTE 0x1
                 _disp_time:
0005bf           	.BYTE 0x1
                 _disp_date:
0005c0           	.BYTE 0x1
                 _temp_hour:
0005c1           	.BYTE 0x1
                 _temp_minute:
0005c2           	.BYTE 0x1
                 _temp_second:
0005c3           	.BYTE 0x1
                 _disp_temp_time:
0005c4           	.BYTE 0x1
                 _temp_date:
0005c5           	.BYTE 0x1
                 _temp_month:
0005c6           	.BYTE 0x1
                 _temp_year:
0005c7           	.BYTE 0x1
                 _disp_temp_date:
0005c8           	.BYTE 0x1
                 _dataArr:
0005c9           	.BYTE 0x9
                 _fltArray:
0005d2           	.BYTE 0x9
                 _disp_volt:
0005db           	.BYTE 0x3
                 _disp_current:
0005de           	.BYTE 0x3
                 _disp_set_voltage:
0005e1           	.BYTE 0x3
                 _disp_set_btcurrent:
0005e4           	.BYTE 0x4
                 _disp_actual_voltage:
0005e8           	.BYTE 0x3
                 _disp_actual_btcurrent:
0005eb           	.BYTE 0x4
                 _disp_actual_ipvoltage:
0005ef           	.BYTE 0x3
                 _disp_actual_opcurrent:
0005f2           	.BYTE 0x4
                 _xmitMsg:
0005f6           	.BYTE 0x2
                 _rdataA:
0005f8           	.BYTE 0x14
                 _comStart:
00060c           	.BYTE 0x2
                 _i:
00060e           	.BYTE 0x2
                 _rx_buffer0:
000610           	.BYTE 0x20
                 _rx_wr_index0:
000630           	.BYTE 0x1
                 _rx_rd_index0:
000631           	.BYTE 0x1
                 _rx_counter0:
000632           	.BYTE 0x1
                 _tx_buffer0:
000633           	.BYTE 0x40
                 _tx_wr_index0:
000673           	.BYTE 0x1
                 _tx_rd_index0:
000674           	.BYTE 0x1
                 _tx_counter0:
000675           	.BYTE 0x1
                 _on_pressed:
000676           	.BYTE 0x2
                 _off_pressed:
000678           	.BYTE 0x2
                 _reset_pressed:
00067a           	.BYTE 0x2
                 _on_button_state:
00067c           	.BYTE 0x2
                 _off_button_state:
00067e           	.BYTE 0x2
                 _reset_button_state:
000680           	.BYTE 0x2
                 __seed_G101:
000682           	.BYTE 0x4
                 __base_y_G104:
000686           	.BYTE 0x4
                 __lcd_x:
00068a           	.BYTE 0x1
                 __lcd_y:
00068b           	.BYTE 0x1
                 __lcd_maxx:
00068c           	.BYTE 0x1
                 
                 	.CSEG
                 ;OPTIMIZER ADDED SUBROUTINE, CALLED 2 TIMES, CODE SIZE REDUCTION:1 WORDS
                 SUBOPT_0x0:
000fd9 01f8      	MOVW R30,R16
000fda 81aa      	LDD  R26,Y+2
000fdb 81bb      	LDD  R27,Y+2+1
000fdc 0fea      	ADD  R30,R26
000fdd 1ffb      	ADC  R31,R27
000fde 91e4      	LPM  R30,Z
000fdf 9508      	RET
                 
                 ;OPTIMIZER ADDED SUBROUTINE, CALLED 5 TIMES, CODE SIZE REDUCTION:5 WORDS
                 SUBOPT_0x1:
000fe0 93fa      	ST   -Y,R31
000fe1 93ea      	ST   -Y,R30
000fe2 940c 01e9 	JMP  _xmitString
                 
                 ;OPTIMIZER ADDED SUBROUTINE, CALLED 7 TIMES, CODE SIZE REDUCTION:21 WORDS
                 SUBOPT_0x2:
000fe4 e0e1      	LDI  R30,LOW(1)
000fe5 e0f0      	LDI  R31,HIGH(1)
000fe6 93e0 05b1 	STS  _current_mainscreen_flag,R30
000fe8 93f0 05b2 	STS  _current_mainscreen_flag+1,R31
000fea 9508      	RET
                 
                 ;OPTIMIZER ADDED SUBROUTINE, CALLED 2 TIMES, CODE SIZE REDUCTION:11 WORDS
                 SUBOPT_0x3:
000feb 940e 1549 	CALL __SAVELOCR4
000fed 81ac      	LDD  R26,Y+4
000fee 81bd      	LDD  R27,Y+4+1
000fef e0ea      	LDI  R30,LOW(10)
000ff0 e0f0      	LDI  R31,HIGH(10)
000ff1 940e 14f3 	CALL __MODW21
000ff3 018f      	MOVW R16,R30
000ff4 81ac      	LDD  R26,Y+4
000ff5 81bd      	LDD  R27,Y+4+1
000ff6 e0ea      	LDI  R30,LOW(10)
000ff7 e0f0      	LDI  R31,HIGH(10)
000ff8 940e 14ee 	CALL __DIVW21
000ffa 019f      	MOVW R18,R30
000ffb 9508      	RET
                 
                 ;OPTIMIZER ADDED SUBROUTINE, CALLED 2 TIMES, CODE SIZE REDUCTION:6 WORDS
                 SUBOPT_0x4:
000ffc 0fea      	ADD  R30,R26
000ffd 1ffb      	ADC  R31,R27
000ffe 010f      	MOVW R0,R30
000fff 01fa      	MOVW R30,R20
001000 85ad      	LDD  R26,Y+13
001001 85be      	LDD  R27,Y+13+1
001002 0fae      	ADD  R26,R30
001003 1fbf      	ADC  R27,R31
001004 91ec      	LD   R30,X
001005 01d0      	MOVW R26,R0
001006 93ec      	ST   X,R30
001007 9508      	RET
                 
                 ;OPTIMIZER ADDED SUBROUTINE, CALLED 7 TIMES, CODE SIZE REDUCTION:9 WORDS
                 SUBOPT_0x5:
001008 e0f0      	LDI  R31,0
001009 97f0      	SBIW R30,48
00100a 9508      	RET
                 
                 ;OPTIMIZER ADDED SUBROUTINE, CALLED 2 TIMES, CODE SIZE REDUCTION:1 WORDS
                 SUBOPT_0x6:
00100b e0aa      	LDI  R26,LOW(10)
00100c e0b0      	LDI  R27,HIGH(10)
00100d 940e 14d6 	CALL __MULW12
                +
00100f 0f6e     +ADD R22 , R30
001010 1f7f     +ADC R23 , R31
                 	__ADDWRR 22,23,30,31
001011 9508      	RET
                 
                 ;OPTIMIZER ADDED SUBROUTINE, CALLED 3 TIMES, CODE SIZE REDUCTION:1 WORDS
                 SUBOPT_0x7:
001012 50e1      	SUBI R30,LOW(1)
001013 e0f0      	LDI  R31,0
001014 9508      	RET
                 
                 ;OPTIMIZER ADDED SUBROUTINE, CALLED 3 TIMES, CODE SIZE REDUCTION:3 WORDS
                 SUBOPT_0x8:
001015 e0e0      	LDI  R30,LOW(0)
001016 93e0 060e 	STS  _i,R30
001018 93e0 060f 	STS  _i+1,R30
00101a 9508      	RET
                 
                 ;OPTIMIZER ADDED SUBROUTINE, CALLED 2 TIMES, CODE SIZE REDUCTION:2 WORDS
                 SUBOPT_0x9:
00101b 91e0 060e 	LDS  R30,_i
00101d 91f0 060f 	LDS  R31,_i+1
00101f 50e8      	SUBI R30,LOW(-_rdataA)
001020 4ffa      	SBCI R31,HIGH(-_rdataA)
001021 8300      	ST   Z,R16
001022 9508      	RET
                 
                 ;OPTIMIZER ADDED SUBROUTINE, CALLED 4 TIMES, CODE SIZE REDUCTION:6 WORDS
                 SUBOPT_0xA:
001023 91ed      	LD   R30,X+
001024 91fd      	LD   R31,X+
001025 9631      	ADIW R30,1
001026 93fe      	ST   -X,R31
001027 93ee      	ST   -X,R30
001028 9508      	RET
                 
                 ;OPTIMIZER ADDED SUBROUTINE, CALLED 3 TIMES, CODE SIZE REDUCTION:3 WORDS
                 SUBOPT_0xB:
001029 e0f0      	LDI  R31,0
00102a 68f0      	ORI  R31,HIGH(0x8000)
00102b 01df      	MOVW R26,R30
00102c 9508      	RET
                 
                 ;OPTIMIZER ADDED SUBROUTINE, CALLED 3 TIMES, CODE SIZE REDUCTION:1 WORDS
                 SUBOPT_0xC:
00102d 0fee      	LSL  R30
00102e 1fff      	ROL  R31
00102f 2bea      	OR   R30,R26
001030 2bfb      	OR   R31,R27
001031 9508      	RET
                 
                 ;OPTIMIZER ADDED SUBROUTINE, CALLED 2 TIMES, CODE SIZE REDUCTION:7 WORDS
                 SUBOPT_0xD:
001032 e0e0      	LDI  R30,LOW(0)
001033 93ea      	ST   -Y,R30
001034 e0e2      	LDI  R30,LOW(2)
001035 93ea      	ST   -Y,R30
001036 940e 0ed5 	CALL _lcd_gotoxy
                +
001038 efe6     +LDI R30 , LOW ( 2 * _0x0 + ( 52 ) )
001039 e0f0     +LDI R31 , HIGH ( 2 * _0x0 + ( 52 ) )
                 	__POINTW1FN _0x0,52
00103a 93fa      	ST   -Y,R31
00103b 93ea      	ST   -Y,R30
00103c 940c 0f2c 	JMP  _lcd_putsf
                 
                 ;OPTIMIZER ADDED SUBROUTINE, CALLED 2 TIMES, CODE SIZE REDUCTION:1 WORDS
                 SUBOPT_0xE:
00103e e0e1      	LDI  R30,LOW(1)
00103f 93ea      	ST   -Y,R30
001040 e0e2      	LDI  R30,LOW(2)
001041 93ea      	ST   -Y,R30
001042 940c 0ed5 	JMP  _lcd_gotoxy
                 
                 ;OPTIMIZER ADDED SUBROUTINE, CALLED 14 TIMES, CODE SIZE REDUCTION:49 WORDS
                 SUBOPT_0xF:
                +
001044 efe6     +LDI R30 , LOW ( 2 * _0x0 + ( 52 ) )
001045 e0f0     +LDI R31 , HIGH ( 2 * _0x0 + ( 52 ) )
                 	__POINTW1FN _0x0,52
001046 93fa      	ST   -Y,R31
001047 93ea      	ST   -Y,R30
001048 940c 0f2c 	JMP  _lcd_putsf
                 
                 ;OPTIMIZER ADDED SUBROUTINE, CALLED 10 TIMES, CODE SIZE REDUCTION:42 WORDS
                 SUBOPT_0x10:
00104a 93ea      	ST   -Y,R30
00104b e0e2      	LDI  R30,LOW(2)
00104c 93ea      	ST   -Y,R30
00104d 940e 0ed5 	CALL _lcd_gotoxy
00104f cff4      	RJMP SUBOPT_0xF
                 
                 ;OPTIMIZER ADDED SUBROUTINE, CALLED 15 TIMES, CODE SIZE REDUCTION:25 WORDS
                 SUBOPT_0x11:
001050 e0e2      	LDI  R30,LOW(2)
001051 93ea      	ST   -Y,R30
001052 940c 0ed5 	JMP  _lcd_gotoxy
                 
                 ;OPTIMIZER ADDED SUBROUTINE, CALLED 11 TIMES, CODE SIZE REDUCTION:37 WORDS
                 SUBOPT_0x12:
001054 e0e0      	LDI  R30,LOW(0)
001055 93ea      	ST   -Y,R30
001056 93ea      	ST   -Y,R30
001057 940c 0ed5 	JMP  _lcd_gotoxy
                 
                 ;OPTIMIZER ADDED SUBROUTINE, CALLED 9 TIMES, CODE SIZE REDUCTION:29 WORDS
                 SUBOPT_0x13:
001059 e0e0      	LDI  R30,LOW(0)
00105a 93ea      	ST   -Y,R30
00105b e0e1      	LDI  R30,LOW(1)
00105c 93ea      	ST   -Y,R30
00105d 940c 0ed5 	JMP  _lcd_gotoxy
                 
                 ;OPTIMIZER ADDED SUBROUTINE, CALLED 5 TIMES, CODE SIZE REDUCTION:9 WORDS
                 SUBOPT_0x14:
00105f 93ea      	ST   -Y,R30
001060 e0e3      	LDI  R30,LOW(3)
001061 93ea      	ST   -Y,R30
001062 940c 0ed5 	JMP  _lcd_gotoxy
                 
                 ;OPTIMIZER ADDED SUBROUTINE, CALLED 5 TIMES, CODE SIZE REDUCTION:13 WORDS
                 SUBOPT_0x15:
001064 93fa      	ST   -Y,R31
001065 93ea      	ST   -Y,R30
                +
001066 efea     +LDI R30 , LOW ( 2 * _0x0 + ( 56 ) )
001067 e0f0     +LDI R31 , HIGH ( 2 * _0x0 + ( 56 ) )
                 	__POINTW1FN _0x0,56
001068 93fa      	ST   -Y,R31
001069 93ea      	ST   -Y,R30
00106a 9508      	RET
                 
                 ;OPTIMIZER ADDED SUBROUTINE, CALLED 4 TIMES, CODE SIZE REDUCTION:3 WORDS
                 SUBOPT_0x16:
00106b 91e0 058f 	LDS  R30,_temp_voltage
00106d 91f0 0590 	LDS  R31,_temp_voltage+1
00106f 9508      	RET
                 
                 ;OPTIMIZER ADDED SUBROUTINE, CALLED 2 TIMES, CODE SIZE REDUCTION:5 WORDS
                 SUBOPT_0x17:
001070 940e 14c9 	CALL __CWD1
001072 940e 1526 	CALL __PUTPARD1
001074 e084      	LDI  R24,4
001075 940e 0ca9 	CALL _sprintf
001077 9628      	ADIW R28,8
001078 cfe0      	RJMP SUBOPT_0x13
                 
                 ;OPTIMIZER ADDED SUBROUTINE, CALLED 4 TIMES, CODE SIZE REDUCTION:3 WORDS
                 SUBOPT_0x18:
001079 91e0 0591 	LDS  R30,_temp_current
00107b 91f0 0592 	LDS  R31,_temp_current+1
00107d 9508      	RET
                 
                 ;OPTIMIZER ADDED SUBROUTINE, CALLED 3 TIMES, CODE SIZE REDUCTION:5 WORDS
                 SUBOPT_0x19:
00107e 93fa      	ST   -Y,R31
00107f 93ea      	ST   -Y,R30
                +
001080 e0e4     +LDI R30 , LOW ( 2 * _0x0 + ( 66 ) )
001081 e0f1     +LDI R31 , HIGH ( 2 * _0x0 + ( 66 ) )
                 	__POINTW1FN _0x0,66
001082 93fa      	ST   -Y,R31
001083 93ea      	ST   -Y,R30
001084 9508      	RET
                 
                 ;OPTIMIZER ADDED SUBROUTINE, CALLED 18 TIMES, CODE SIZE REDUCTION:48 WORDS
                 SUBOPT_0x1A:
001085 27ff      	CLR  R31
001086 2766      	CLR  R22
001087 2777      	CLR  R23
001088 940e 1526 	CALL __PUTPARD1
00108a 9508      	RET
                 
                 ;OPTIMIZER ADDED SUBROUTINE, CALLED 2 TIMES, CODE SIZE REDUCTION:1 WORDS
                 SUBOPT_0x1B:
00108b e08c      	LDI  R24,12
00108c 940e 0ca9 	CALL _sprintf
00108e 9660      	ADIW R28,16
00108f cfc9      	RJMP SUBOPT_0x13
                 
                 ;OPTIMIZER ADDED SUBROUTINE, CALLED 3 TIMES, CODE SIZE REDUCTION:5 WORDS
                 SUBOPT_0x1C:
001090 93fa      	ST   -Y,R31
001091 93ea      	ST   -Y,R30
                +
001092 e1e3     +LDI R30 , LOW ( 2 * _0x0 + ( 81 ) )
001093 e0f1     +LDI R31 , HIGH ( 2 * _0x0 + ( 81 ) )
                 	__POINTW1FN _0x0,81
001094 93fa      	ST   -Y,R31
001095 93ea      	ST   -Y,R30
001096 9508      	RET
                 
                 ;OPTIMIZER ADDED SUBROUTINE, CALLED 5 TIMES, CODE SIZE REDUCTION:13 WORDS
                 SUBOPT_0x1D:
001097 e6e4      	LDI  R30,LOW(100)
001098 e0f0      	LDI  R31,HIGH(100)
001099 93fa      	ST   -Y,R31
00109a 93ea      	ST   -Y,R30
00109b 940c 12e3 	JMP  _delay_ms
                 
                 ;OPTIMIZER ADDED SUBROUTINE, CALLED 4 TIMES, CODE SIZE REDUCTION:15 WORDS
                 SUBOPT_0x1E:
00109d e0e1      	LDI  R30,LOW(1)
00109e e0f0      	LDI  R31,HIGH(1)
00109f 93e0 05ad 	STS  _main_screen_trigger,R30
0010a1 93f0 05ae 	STS  _main_screen_trigger+1,R31
0010a3 cf40      	RJMP SUBOPT_0x2
                 
                 ;OPTIMIZER ADDED SUBROUTINE, CALLED 3 TIMES, CODE SIZE REDUCTION:9 WORDS
                 SUBOPT_0x1F:
0010a4 2466      	CLR  R6
0010a5 2477      	CLR  R7
0010a6 e0e1      	LDI  R30,LOW(1)
0010a7 e0f0      	LDI  R31,HIGH(1)
0010a8 93e0 05a7 	STS  _set_flag,R30
0010aa 93f0 05a8 	STS  _set_flag+1,R31
0010ac 9508      	RET
                 
                 ;OPTIMIZER ADDED SUBROUTINE, CALLED 5 TIMES, CODE SIZE REDUCTION:5 WORDS
                 SUBOPT_0x20:
0010ad e6e4      	LDI  R30,LOW(100)
0010ae e0f0      	LDI  R31,HIGH(100)
0010af 15e4      	CP   R30,R4
0010b0 05f5      	CPC  R31,R5
0010b1 9508      	RET
                 
                 ;OPTIMIZER ADDED SUBROUTINE, CALLED 10 TIMES, CODE SIZE REDUCTION:24 WORDS
                 SUBOPT_0x21:
0010b2 01d2      	MOVW R26,R4
0010b3 e0ea      	LDI  R30,LOW(10)
0010b4 e0f0      	LDI  R31,HIGH(10)
0010b5 940e 14ee 	CALL __DIVW21
0010b7 9508      	RET
                 
                 ;OPTIMIZER ADDED SUBROUTINE, CALLED 2 TIMES, CODE SIZE REDUCTION:28 WORDS
                 SUBOPT_0x22:
0010b8 931a      	ST   -Y,R17
0010b9 930a      	ST   -Y,R16
                +
0010ba e0e0     +LDI R30 , LOW ( 0x41200000 )
0010bb e0f0     +LDI R31 , HIGH ( 0x41200000 )
0010bc e260     +LDI R22 , BYTE3 ( 0x41200000 )
0010bd e471     +LDI R23 , BYTE4 ( 0x41200000 )
                 	__GETD1N 0x41200000
0010be 940e 1526 	CALL __PUTPARD1
0010c0 81ae      	LDD  R26,Y+6
0010c1 81bf      	LDD  R27,Y+6+1
0010c2 19a8      	SUB  R26,R8
0010c3 09b9      	SBC  R27,R9
0010c4 e0e1      	LDI  R30,LOW(1)
0010c5 e0f0      	LDI  R31,HIGH(1)
0010c6 940e 1531 	CALL __SWAPW12
0010c8 1bea      	SUB  R30,R26
0010c9 0bfb      	SBC  R31,R27
0010ca 940e 14c9 	CALL __CWD1
0010cc 940e 137c 	CALL __CDF1
0010ce 940e 1526 	CALL __PUTPARD1
0010d0 940e 0e44 	CALL _pow
0010d2 940e 1343 	CALL __CFD1U
0010d4 018f      	MOVW R16,R30
0010d5 940e 047c 	CALL _pointer_display_horiz
0010d7 cfbf      	RJMP SUBOPT_0x1D
                 
                 ;OPTIMIZER ADDED SUBROUTINE, CALLED 4 TIMES, CODE SIZE REDUCTION:3 WORDS
                 SUBOPT_0x23:
0010d8 e0e1      	LDI  R30,LOW(1)
0010d9 e0f0      	LDI  R31,HIGH(1)
0010da 17e0      	CP   R30,R16
0010db 07f1      	CPC  R31,R17
0010dc 9508      	RET
                 
                 ;OPTIMIZER ADDED SUBROUTINE, CALLED 9 TIMES, CODE SIZE REDUCTION:13 WORDS
                 SUBOPT_0x24:
0010dd 91a0 058f 	LDS  R26,_temp_voltage
0010df 91b0 0590 	LDS  R27,_temp_voltage+1
0010e1 9508      	RET
                 
                 ;OPTIMIZER ADDED SUBROUTINE, CALLED 3 TIMES, CODE SIZE REDUCTION:1 WORDS
                 SUBOPT_0x25:
0010e2 dffa      	RCALL SUBOPT_0x24
0010e3 eee8      	LDI  R30,LOW(1000)
0010e4 e0f3      	LDI  R31,HIGH(1000)
0010e5 9508      	RET
                 
                 ;OPTIMIZER ADDED SUBROUTINE, CALLED 4 TIMES, CODE SIZE REDUCTION:9 WORDS
                 SUBOPT_0x26:
0010e6 940e 14f3 	CALL __MODW21
0010e8 93e0 058f 	STS  _temp_voltage,R30
0010ea 93f0 0590 	STS  _temp_voltage+1,R31
0010ec 9508      	RET
                 
                 ;OPTIMIZER ADDED SUBROUTINE, CALLED 2 TIMES, CODE SIZE REDUCTION:6 WORDS
                 SUBOPT_0x27:
0010ed 01f4      	MOVW R30,R8
0010ee 9631      	ADIW R30,1
0010ef 014f      	MOVW R8,R30
0010f0 81ea      	LDD  R30,Y+2
0010f1 81fb      	LDD  R31,Y+2+1
0010f2 01d4      	MOVW R26,R8
0010f3 940e 14f3 	CALL __MODW21
0010f5 014f      	MOVW R8,R30
0010f6 940c 047c 	JMP  _pointer_display_horiz
                 
                 ;OPTIMIZER ADDED SUBROUTINE, CALLED 8 TIMES, CODE SIZE REDUCTION:11 WORDS
                 SUBOPT_0x28:
0010f8 940e 0ee6 	CALL _lcd_clear
0010fa cf59      	RJMP SUBOPT_0x12
                 
                 ;OPTIMIZER ADDED SUBROUTINE, CALLED 25 TIMES, CODE SIZE REDUCTION:45 WORDS
                 SUBOPT_0x29:
0010fb 93fa      	ST   -Y,R31
0010fc 93ea      	ST   -Y,R30
0010fd 940c 0f1e 	JMP  _lcd_puts
                 
                 ;OPTIMIZER ADDED SUBROUTINE, CALLED 10 TIMES, CODE SIZE REDUCTION:24 WORDS
                 SUBOPT_0x2A:
0010ff 93ea      	ST   -Y,R30
001100 e0e1      	LDI  R30,LOW(1)
001101 93ea      	ST   -Y,R30
001102 940c 0ed5 	JMP  _lcd_gotoxy
                 
                 ;OPTIMIZER ADDED SUBROUTINE, CALLED 27 TIMES, CODE SIZE REDUCTION:49 WORDS
                 SUBOPT_0x2B:
001104 93fa      	ST   -Y,R31
001105 93ea      	ST   -Y,R30
001106 940c 0f2c 	JMP  _lcd_putsf
                 
                 ;OPTIMIZER ADDED SUBROUTINE, CALLED 2 TIMES, CODE SIZE REDUCTION:3 WORDS
                 SUBOPT_0x2C:
001108 93e0 0593 	STS  _set_voltage,R30
00110a 93f0 0594 	STS  _set_voltage+1,R31
00110c 9360 0595 	STS  _set_voltage+2,R22
00110e 9370 0596 	STS  _set_voltage+3,R23
001110 9508      	RET
                 
                 ;OPTIMIZER ADDED SUBROUTINE, CALLED 6 TIMES, CODE SIZE REDUCTION:17 WORDS
                 SUBOPT_0x2D:
001111 e0eb      	LDI  R30,LOW(11)
001112 e0f0      	LDI  R31,HIGH(11)
001113 93e0 05a9 	STS  _flag,R30
001115 93f0 05aa 	STS  _flag+1,R31
001117 9508      	RET
                 
                 ;OPTIMIZER ADDED SUBROUTINE, CALLED 6 TIMES, CODE SIZE REDUCTION:17 WORDS
                 SUBOPT_0x2E:
001118 940e 14ee 	CALL __DIVW21
00111a 5de0      	SUBI R30,-LOW(48)
00111b 93ea      	ST   -Y,R30
00111c 940c 03f0 	JMP  _putchar
                 
                 ;OPTIMIZER ADDED SUBROUTINE, CALLED 2 TIMES, CODE SIZE REDUCTION:7 WORDS
                 SUBOPT_0x2F:
00111e e3ee      	LDI  R30,LOW(62)
00111f 93ea      	ST   -Y,R30
001120 940e 03f0 	CALL _putchar
001122 efe4      	LDI  R30,LOW(500)
001123 e0f1      	LDI  R31,HIGH(500)
001124 93fa      	ST   -Y,R31
001125 93ea      	ST   -Y,R30
001126 940e 12e3 	CALL _delay_ms
001128 cf74      	RJMP SUBOPT_0x1E
                 
                 ;OPTIMIZER ADDED SUBROUTINE, CALLED 6 TIMES, CODE SIZE REDUCTION:7 WORDS
                 SUBOPT_0x30:
001129 e0e0      	LDI  R30,LOW(0)
00112a 93ea      	ST   -Y,R30
00112b cf24      	RJMP SUBOPT_0x11
                 
                 ;OPTIMIZER ADDED SUBROUTINE, CALLED 5 TIMES, CODE SIZE REDUCTION:13 WORDS
                 SUBOPT_0x31:
00112c eee8      	LDI  R30,LOW(1000)
00112d e0f3      	LDI  R31,HIGH(1000)
00112e 93fa      	ST   -Y,R31
00112f 93ea      	ST   -Y,R30
001130 940c 12e3 	JMP  _delay_ms
                 
                 ;OPTIMIZER ADDED SUBROUTINE, CALLED 9 TIMES, CODE SIZE REDUCTION:13 WORDS
                 SUBOPT_0x32:
001132 91a0 0591 	LDS  R26,_temp_current
001134 91b0 0592 	LDS  R27,_temp_current+1
001136 9508      	RET
                 
                 ;OPTIMIZER ADDED SUBROUTINE, CALLED 3 TIMES, CODE SIZE REDUCTION:1 WORDS
                 SUBOPT_0x33:
001137 dffa      	RCALL SUBOPT_0x32
001138 eee8      	LDI  R30,LOW(1000)
001139 e0f3      	LDI  R31,HIGH(1000)
00113a 9508      	RET
                 
                 ;OPTIMIZER ADDED SUBROUTINE, CALLED 4 TIMES, CODE SIZE REDUCTION:9 WORDS
                 SUBOPT_0x34:
00113b 940e 14f3 	CALL __MODW21
00113d 93e0 0591 	STS  _temp_current,R30
00113f 93f0 0592 	STS  _temp_current+1,R31
001141 9508      	RET
                 
                 ;OPTIMIZER ADDED SUBROUTINE, CALLED 2 TIMES, CODE SIZE REDUCTION:3 WORDS
                 SUBOPT_0x35:
001142 93e0 0597 	STS  _set_current,R30
001144 93f0 0598 	STS  _set_current+1,R31
001146 9360 0599 	STS  _set_current+2,R22
001148 9370 059a 	STS  _set_current+3,R23
00114a 9508      	RET
                 
                 ;OPTIMIZER ADDED SUBROUTINE, CALLED 2 TIMES, CODE SIZE REDUCTION:1 WORDS
                 SUBOPT_0x36:
00114b 931a      	ST   -Y,R17
00114c 930a      	ST   -Y,R16
00114d 940e 047c 	CALL _pointer_display_horiz
00114f cf47      	RJMP SUBOPT_0x1D
                 
                 ;OPTIMIZER ADDED SUBROUTINE, CALLED 2 TIMES, CODE SIZE REDUCTION:6 WORDS
                 SUBOPT_0x37:
001150 01f4      	MOVW R30,R8
001151 9633      	ADIW R30,3
001152 014f      	MOVW R8,R30
001153 01d4      	MOVW R26,R8
001154 e0e9      	LDI  R30,LOW(9)
001155 e0f0      	LDI  R31,HIGH(9)
001156 940e 14f3 	CALL __MODW21
001158 014f      	MOVW R8,R30
001159 940c 047c 	JMP  _pointer_display_horiz
                 
                 ;OPTIMIZER ADDED SUBROUTINE, CALLED 2 TIMES, CODE SIZE REDUCTION:3 WORDS
                 SUBOPT_0x38:
00115b 940e 0ee6 	CALL _lcd_clear
00115d e0e2      	LDI  R30,LOW(2)
00115e 93ea      	ST   -Y,R30
00115f e0e0      	LDI  R30,LOW(0)
001160 93ea      	ST   -Y,R30
001161 940c 0ed5 	JMP  _lcd_gotoxy
                 
                 ;OPTIMIZER ADDED SUBROUTINE, CALLED 4 TIMES, CODE SIZE REDUCTION:9 WORDS
                 SUBOPT_0x39:
001163 e0e1      	LDI  R30,LOW(1)
001164 e0f0      	LDI  R31,HIGH(1)
001165 93e0 05a9 	STS  _flag,R30
001167 93f0 05aa 	STS  _flag+1,R31
001169 9508      	RET
                 
                 ;OPTIMIZER ADDED SUBROUTINE, CALLED 2 TIMES, CODE SIZE REDUCTION:7 WORDS
                 SUBOPT_0x3A:
00116a 940e 0ee6 	CALL _lcd_clear
00116c 24aa      	CLR  R10
00116d 24bb      	CLR  R11
00116e 2488      	CLR  R8
00116f 2499      	CLR  R9
001170 e0e1      	LDI  R30,LOW(1)
001171 93ea      	ST   -Y,R30
001172 e0e0      	LDI  R30,LOW(0)
001173 93ea      	ST   -Y,R30
001174 940c 0ed5 	JMP  _lcd_gotoxy
                 
                 ;OPTIMIZER ADDED SUBROUTINE, CALLED 3 TIMES, CODE SIZE REDUCTION:1 WORDS
                 SUBOPT_0x3B:
001176 93e0 05ab 	STS  _n,R30
001178 93f0 05ac 	STS  _n+1,R31
00117a 9508      	RET
                 
                 ;OPTIMIZER ADDED SUBROUTINE, CALLED 8 TIMES, CODE SIZE REDUCTION:18 WORDS
                 SUBOPT_0x3C:
00117b 93ea      	ST   -Y,R30
00117c e0e0      	LDI  R30,LOW(0)
00117d 93ea      	ST   -Y,R30
00117e 940c 0ed5 	JMP  _lcd_gotoxy
                 
                 ;OPTIMIZER ADDED SUBROUTINE, CALLED 3 TIMES, CODE SIZE REDUCTION:1 WORDS
                 SUBOPT_0x3D:
001180 e0e3      	LDI  R30,LOW(3)
001181 e0f0      	LDI  R31,HIGH(3)
001182 93fa      	ST   -Y,R31
001183 93ea      	ST   -Y,R30
001184 9508      	RET
                 
                 ;OPTIMIZER ADDED SUBROUTINE, CALLED 4 TIMES, CODE SIZE REDUCTION:6 WORDS
                 SUBOPT_0x3E:
001185 e0e0      	LDI  R30,LOW(0)
001186 93e0 05a9 	STS  _flag,R30
001188 93e0 05aa 	STS  _flag+1,R30
00118a 9508      	RET
                 
                 ;OPTIMIZER ADDED SUBROUTINE, CALLED 3 TIMES, CODE SIZE REDUCTION:1 WORDS
                 SUBOPT_0x3F:
00118b 91a0 05a9 	LDS  R26,_flag
00118d 91b0 05aa 	LDS  R27,_flag+1
00118f 9508      	RET
                 
                 ;OPTIMIZER ADDED SUBROUTINE, CALLED 2 TIMES, CODE SIZE REDUCTION:1 WORDS
                 SUBOPT_0x40:
001190 e0e1      	LDI  R30,LOW(1)
001191 e0f0      	LDI  R31,HIGH(1)
001192 014f      	MOVW R8,R30
001193 e0e6      	LDI  R30,LOW(6)
001194 cfe6      	RJMP SUBOPT_0x3C
                 
                 ;OPTIMIZER ADDED SUBROUTINE, CALLED 2 TIMES, CODE SIZE REDUCTION:11 WORDS
                 SUBOPT_0x41:
001195 ebe9      	LDI  R30,LOW(_hour)
001196 e0f5      	LDI  R31,HIGH(_hour)
001197 93fa      	ST   -Y,R31
001198 93ea      	ST   -Y,R30
001199 ebea      	LDI  R30,LOW(_minute)
00119a e0f5      	LDI  R31,HIGH(_minute)
00119b 93fa      	ST   -Y,R31
00119c 93ea      	ST   -Y,R30
00119d ebeb      	LDI  R30,LOW(_second)
00119e e0f5      	LDI  R31,HIGH(_second)
00119f 93fa      	ST   -Y,R31
0011a0 93ea      	ST   -Y,R30
0011a1 940e 0f87 	CALL _rtc_get_time
0011a3 ceb0      	RJMP SUBOPT_0x12
                 
                 ;OPTIMIZER ADDED SUBROUTINE, CALLED 4 TIMES, CODE SIZE REDUCTION:6 WORDS
                 SUBOPT_0x42:
0011a4 e08c      	LDI  R24,12
0011a5 940e 0ca9 	CALL _sprintf
0011a7 9660      	ADIW R28,16
0011a8 e0e6      	LDI  R30,LOW(6)
0011a9 9508      	RET
                 
                 ;OPTIMIZER ADDED SUBROUTINE, CALLED 2 TIMES, CODE SIZE REDUCTION:11 WORDS
                 SUBOPT_0x43:
0011aa ebec      	LDI  R30,LOW(_date)
0011ab e0f5      	LDI  R31,HIGH(_date)
0011ac 93fa      	ST   -Y,R31
0011ad 93ea      	ST   -Y,R30
0011ae ebed      	LDI  R30,LOW(_month)
0011af e0f5      	LDI  R31,HIGH(_month)
0011b0 93fa      	ST   -Y,R31
0011b1 93ea      	ST   -Y,R30
0011b2 ebee      	LDI  R30,LOW(_year)
0011b3 e0f5      	LDI  R31,HIGH(_year)
0011b4 93fa      	ST   -Y,R31
0011b5 93ea      	ST   -Y,R30
0011b6 940e 0f9f 	CALL _rtc_get_date
0011b8 cf70      	RJMP SUBOPT_0x30
                 
                 ;OPTIMIZER ADDED SUBROUTINE, CALLED 4 TIMES, CODE SIZE REDUCTION:9 WORDS
                 SUBOPT_0x44:
0011b9 940e 1526 	CALL __PUTPARD1
0011bb e084      	LDI  R24,4
0011bc 940e 0ca9 	CALL _sprintf
0011be 9628      	ADIW R28,8
0011bf 9508      	RET
                 
                 ;OPTIMIZER ADDED SUBROUTINE, CALLED 3 TIMES, CODE SIZE REDUCTION:3 WORDS
                 SUBOPT_0x45:
0011c0 91a0 05b5 	LDS  R26,_fault_flag
0011c2 91b0 05b6 	LDS  R27,_fault_flag+1
0011c4 9711      	SBIW R26,1
0011c5 9508      	RET
                 
                 ;OPTIMIZER ADDED SUBROUTINE, CALLED 3 TIMES, CODE SIZE REDUCTION:1 WORDS
                 SUBOPT_0x46:
0011c6 e0e4      	LDI  R30,LOW(4)
0011c7 93ea      	ST   -Y,R30
0011c8 ce87      	RJMP SUBOPT_0x11
                 
                 ;OPTIMIZER ADDED SUBROUTINE, CALLED 2 TIMES, CODE SIZE REDUCTION:1 WORDS
                 SUBOPT_0x47:
0011c9 93fa      	ST   -Y,R31
0011ca 93ea      	ST   -Y,R30
                +
0011cb eaec     +LDI R30 , LOW ( 2 * _0x0 + ( 490 ) )
0011cc e0f2     +LDI R31 , HIGH ( 2 * _0x0 + ( 490 ) )
                 	__POINTW1FN _0x0,490
0011cd 93fa      	ST   -Y,R31
0011ce 93ea      	ST   -Y,R30
0011cf 9508      	RET
                 
                 ;OPTIMIZER ADDED SUBROUTINE, CALLED 4 TIMES, CODE SIZE REDUCTION:3 WORDS
                 SUBOPT_0x48:
0011d0 940e 14c9 	CALL __CWD1
0011d2 940e 1526 	CALL __PUTPARD1
0011d4 9508      	RET
                 
                 ;OPTIMIZER ADDED SUBROUTINE, CALLED 5 TIMES, CODE SIZE REDUCTION:21 WORDS
                 SUBOPT_0x49:
0011d5 932a      	ST   -Y,R18
0011d6 85ed      	LDD  R30,Y+13
0011d7 85fe      	LDD  R31,Y+13+1
0011d8 93fa      	ST   -Y,R31
0011d9 93ea      	ST   -Y,R30
0011da 89e9      	LDD  R30,Y+17
0011db 89fa      	LDD  R31,Y+17+1
0011dc 9509      	ICALL
0011dd 9508      	RET
                 
                 ;OPTIMIZER ADDED SUBROUTINE, CALLED 5 TIMES, CODE SIZE REDUCTION:9 WORDS
                 SUBOPT_0x4A:
0011de 89e8      	LDD  R30,Y+16
0011df 89f9      	LDD  R31,Y+16+1
0011e0 9734      	SBIW R30,4
0011e1 8be8      	STD  Y+16,R30
0011e2 8bf9      	STD  Y+16+1,R31
0011e3 9508      	RET
                 
                 ;OPTIMIZER ADDED SUBROUTINE, CALLED 3 TIMES, CODE SIZE REDUCTION:7 WORDS
                 SUBOPT_0x4B:
0011e4 85ed      	LDD  R30,Y+13
0011e5 85fe      	LDD  R31,Y+13+1
0011e6 93fa      	ST   -Y,R31
0011e7 93ea      	ST   -Y,R30
0011e8 89e9      	LDD  R30,Y+17
0011e9 89fa      	LDD  R31,Y+17+1
0011ea 9509      	ICALL
0011eb 9508      	RET
                 
                 ;OPTIMIZER ADDED SUBROUTINE, CALLED 2 TIMES, CODE SIZE REDUCTION:6 WORDS
                 SUBOPT_0x4C:
0011ec 89a8      	LDD  R26,Y+16
0011ed 89b9      	LDD  R27,Y+16+1
0011ee 9614      	ADIW R26,4
0011ef 940e 150f 	CALL __GETW1P
0011f1 83ee      	STD  Y+6,R30
0011f2 83ff      	STD  Y+6+1,R31
0011f3 93fa      	ST   -Y,R31
0011f4 93ea      	ST   -Y,R30
0011f5 9508      	RET
                 
                 ;OPTIMIZER ADDED SUBROUTINE, CALLED 2 TIMES, CODE SIZE REDUCTION:2 WORDS
                 SUBOPT_0x4D:
0011f6 89a8      	LDD  R26,Y+16
0011f7 89b9      	LDD  R27,Y+16+1
0011f8 9614      	ADIW R26,4
0011f9 940e 150f 	CALL __GETW1P
0011fb 87ea      	STD  Y+10,R30
0011fc 87fb      	STD  Y+10+1,R31
0011fd 9508      	RET
                 
                 ;OPTIMIZER ADDED SUBROUTINE, CALLED 2 TIMES, CODE SIZE REDUCTION:1 WORDS
                 SUBOPT_0x4E:
0011fe 01de      	MOVW R26,R28
0011ff 961c      	ADIW R26,12
001200 940e 14b9 	CALL __ADDW2R15
001202 940e 150f 	CALL __GETW1P
001204 9508      	RET
                 
                 ;OPTIMIZER ADDED SUBROUTINE, CALLED 4 TIMES, CODE SIZE REDUCTION:3 WORDS
                 SUBOPT_0x4F:
001205 940e 151c 	CALL __GETD1S0
001207 9508      	RET
                 
                 ;OPTIMIZER ADDED SUBROUTINE, CALLED 2 TIMES, CODE SIZE REDUCTION:1 WORDS
                 SUBOPT_0x50:
                +
001208 e0a0     +LDI R26 , LOW ( 0x3F800000 )
001209 e0b0     +LDI R27 , HIGH ( 0x3F800000 )
00120a e880     +LDI R24 , BYTE3 ( 0x3F800000 )
00120b e39f     +LDI R25 , BYTE4 ( 0x3F800000 )
                 	__GETD2N 0x3F800000
00120c 940e 13af 	CALL __SUBF12
00120e 9508      	RET
                 
                 ;OPTIMIZER ADDED SUBROUTINE, CALLED 8 TIMES, CODE SIZE REDUCTION:11 WORDS
                 SUBOPT_0x51:
                +
00120f 81ae     +LDD R26 , Y + 6
001210 81bf     +LDD R27 , Y + 6 + 1
001211 8588     +LDD R24 , Y + 6 + 2
001212 8599     +LDD R25 , Y + 6 + 3
                 	__GETD2S 6
001213 9508      	RET
                 
                 ;OPTIMIZER ADDED SUBROUTINE, CALLED 7 TIMES, CODE SIZE REDUCTION:9 WORDS
                 SUBOPT_0x52:
                +
001214 81ee     +LDD R30 , Y + 6
001215 81ff     +LDD R31 , Y + 6 + 1
001216 8568     +LDD R22 , Y + 6 + 2
001217 8579     +LDD R23 , Y + 6 + 3
                 	__GETD1S 6
001218 9508      	RET
                 
                 ;OPTIMIZER ADDED SUBROUTINE, CALLED 5 TIMES, CODE SIZE REDUCTION:5 WORDS
                 SUBOPT_0x53:
                +
001219 83ee     +STD Y + 6 , R30
00121a 83ff     +STD Y + 6 + 1 , R31
00121b 8768     +STD Y + 6 + 2 , R22
00121c 8779     +STD Y + 6 + 3 , R23
                 	__PUTD1S 6
00121d 9508      	RET
                 
                 ;OPTIMIZER ADDED SUBROUTINE, CALLED 3 TIMES, CODE SIZE REDUCTION:1 WORDS
                 SUBOPT_0x54:
00121e dff5      	RCALL SUBOPT_0x52
00121f cfef      	RJMP SUBOPT_0x51
                 
                 ;OPTIMIZER ADDED SUBROUTINE, CALLED 2 TIMES, CODE SIZE REDUCTION:5 WORDS
                 SUBOPT_0x55:
001220 940e 1406 	CALL __MULF12
                +
001222 83ea     +STD Y + 2 , R30
001223 83fb     +STD Y + 2 + 1 , R31
001224 836c     +STD Y + 2 + 2 , R22
001225 837d     +STD Y + 2 + 3 , R23
                 	__PUTD1S 2
001226 9508      	RET
                 
                 ;OPTIMIZER ADDED SUBROUTINE, CALLED 3 TIMES, CODE SIZE REDUCTION:1 WORDS
                 SUBOPT_0x56:
001227 940e 152b 	CALL __SWAPD12
001229 940e 13af 	CALL __SUBF12
00122b 9508      	RET
                 
                 ;OPTIMIZER ADDED SUBROUTINE, CALLED 3 TIMES, CODE SIZE REDUCTION:1 WORDS
                 SUBOPT_0x57:
                +
00122c 81ea     +LDD R30 , Y + 2
00122d 81fb     +LDD R31 , Y + 2 + 1
00122e 816c     +LDD R22 , Y + 2 + 2
00122f 817d     +LDD R23 , Y + 2 + 3
                 	__GETD1S 2
001230 9508      	RET
                 
                 ;OPTIMIZER ADDED SUBROUTINE, CALLED 4 TIMES, CODE SIZE REDUCTION:3 WORDS
                 SUBOPT_0x58:
                +
001231 85aa     +LDD R26 , Y + 10
001232 85bb     +LDD R27 , Y + 10 + 1
001233 858c     +LDD R24 , Y + 10 + 2
001234 859d     +LDD R25 , Y + 10 + 3
                 	__GETD2S 10
001235 9508      	RET
                 
                 ;OPTIMIZER ADDED SUBROUTINE, CALLED 3 TIMES, CODE SIZE REDUCTION:1 WORDS
                 SUBOPT_0x59:
                +
001236 e0e0     +LDI R30 , LOW ( 0x0 )
001237 e0f0     +LDI R31 , HIGH ( 0x0 )
001238 e060     +LDI R22 , BYTE3 ( 0x0 )
001239 e070     +LDI R23 , BYTE4 ( 0x0 )
                 	__GETD1N 0x0
00123a 9508      	RET
                 
                 ;OPTIMIZER ADDED SUBROUTINE, CALLED 5 TIMES, CODE SIZE REDUCTION:5 WORDS
                 SUBOPT_0x5A:
                +
00123b 85e8     +LDD R30 , Y + 8
00123c 85f9     +LDD R31 , Y + 8 + 1
00123d 856a     +LDD R22 , Y + 8 + 2
00123e 857b     +LDD R23 , Y + 8 + 3
                 	__GETD1S 8
00123f 9508      	RET
                 
                 ;OPTIMIZER ADDED SUBROUTINE, CALLED 3 TIMES, CODE SIZE REDUCTION:1 WORDS
                 SUBOPT_0x5B:
                +
001240 81ec     +LDD R30 , Y + 4
001241 81fd     +LDD R31 , Y + 4 + 1
001242 816e     +LDD R22 , Y + 4 + 2
001243 817f     +LDD R23 , Y + 4 + 3
                 	__GETD1S 4
001244 9508      	RET
                 
                 ;OPTIMIZER ADDED SUBROUTINE, CALLED 2 TIMES, CODE SIZE REDUCTION:9 WORDS
                 SUBOPT_0x5C:
001245 940e 1526 	CALL __PUTPARD1
001247 940e 0d21 	CALL _log
                +
001249 81ac     +LDD R26 , Y + 4
00124a 81bd     +LDD R27 , Y + 4 + 1
00124b 818e     +LDD R24 , Y + 4 + 2
00124c 819f     +LDD R25 , Y + 4 + 3
                 	__GETD2S 4
00124d 940e 1406 	CALL __MULF12
00124f 940e 1526 	CALL __PUTPARD1
001251 940c 0da9 	JMP  _exp
                 
                 ;OPTIMIZER ADDED SUBROUTINE, CALLED 3 TIMES, CODE SIZE REDUCTION:9 WORDS
                 SUBOPT_0x5D:
001253 e3e0      	LDI  R30,LOW(48)
001254 93ea      	ST   -Y,R30
001255 940e 0ea3 	CALL __lcd_write_nibble_G104
                +
001257 e980     +LDI R24 , LOW ( 400 )
001258 e091     +LDI R25 , HIGH ( 400 )
                +__DELAY_USW_LOOP :
001259 9701     +SBIW R24 , 1
00125a f7f1     +BRNE __DELAY_USW_LOOP
                 	__DELAY_USW 400
00125b 9508      	RET
                 
                 ;OPTIMIZER ADDED SUBROUTINE, CALLED 5 TIMES, CODE SIZE REDUCTION:13 WORDS
                 SUBOPT_0x5E:
00125c 940e 1296 	CALL _i2c_start
00125e ede0      	LDI  R30,LOW(208)
00125f 93ea      	ST   -Y,R30
001260 940c 12ca 	JMP  _i2c_write
                 
                 ;OPTIMIZER ADDED SUBROUTINE, CALLED 3 TIMES, CODE SIZE REDUCTION:1 WORDS
                 SUBOPT_0x5F:
001262 93ea      	ST   -Y,R30
001263 940e 12ca 	CALL _i2c_write
001265 81ea      	LDD  R30,Y+2
001266 9508      	RET
                 
                 ;OPTIMIZER ADDED SUBROUTINE, CALLED 2 TIMES, CODE SIZE REDUCTION:11 WORDS
                 SUBOPT_0x60:
001267 93ea      	ST   -Y,R30
001268 940e 12ca 	CALL _i2c_write
00126a 940e 1296 	CALL _i2c_start
00126c ede1      	LDI  R30,LOW(209)
00126d 93ea      	ST   -Y,R30
00126e 940e 12ca 	CALL _i2c_write
001270 e0e1      	LDI  R30,LOW(1)
001271 93ea      	ST   -Y,R30
001272 940e 12af 	CALL _i2c_read
001274 93ea      	ST   -Y,R30
001275 940c 0fc4 	JMP  _bcd2bin
                 
                 ;OPTIMIZER ADDED SUBROUTINE, CALLED 2 TIMES, CODE SIZE REDUCTION:13 WORDS
                 SUBOPT_0x61:
001277 93ec      	ST   X,R30
001278 e0e1      	LDI  R30,LOW(1)
001279 93ea      	ST   -Y,R30
00127a 940e 12af 	CALL _i2c_read
00127c 93ea      	ST   -Y,R30
00127d 940e 0fc4 	CALL _bcd2bin
00127f 81aa      	LDD  R26,Y+2
001280 81bb      	LDD  R27,Y+2+1
001281 93ec      	ST   X,R30
001282 e0e0      	LDI  R30,LOW(0)
001283 93ea      	ST   -Y,R30
001284 940e 12af 	CALL _i2c_read
001286 93ea      	ST   -Y,R30
001287 940c 0fc4 	JMP  _bcd2bin
                 
                 ;OPTIMIZER ADDED SUBROUTINE, CALLED 2 TIMES, CODE SIZE REDUCTION:5 WORDS
                 SUBOPT_0x62:
001289 93ea      	ST   -Y,R30
00128a dd45      	RCALL _bin2bcd
00128b 93ea      	ST   -Y,R30
00128c 940e 12ca 	CALL _i2c_write
00128e 81e9      	LDD  R30,Y+1
00128f 93ea      	ST   -Y,R30
001290 cd3f      	RJMP _bin2bcd
                 
                 
                 	.CSEG
                 	.equ __i2c_dir=__i2c_port-1
                 	.equ __i2c_pin=__i2c_port-2
                 _i2c_init:
001291 9890      	cbi  __i2c_port,__scl_bit
001292 9891      	cbi  __i2c_port,__sda_bit
001293 9a88      	sbi  __i2c_dir,__scl_bit
001294 9889      	cbi  __i2c_dir,__sda_bit
001295 c015      	rjmp __i2c_delay2
                 _i2c_start:
001296 9889      	cbi  __i2c_dir,__sda_bit
001297 9888      	cbi  __i2c_dir,__scl_bit
001298 27ee      	clr  r30
001299 0000      	nop
00129a 9b81      	sbis __i2c_pin,__sda_bit
00129b 9508      	ret
00129c 9b80      	sbis __i2c_pin,__scl_bit
00129d 9508      	ret
00129e d004      	rcall __i2c_delay1
00129f 9a89      	sbi  __i2c_dir,__sda_bit
0012a0 d002      	rcall __i2c_delay1
0012a1 9a88      	sbi  __i2c_dir,__scl_bit
0012a2 e0e1      	ldi  r30,1
                 __i2c_delay1:
0012a3 e16b      	ldi  r22,27
0012a4 c007      	rjmp __i2c_delay2l
                 _i2c_stop:
0012a5 9a89      	sbi  __i2c_dir,__sda_bit
0012a6 9a88      	sbi  __i2c_dir,__scl_bit
0012a7 d003      	rcall __i2c_delay2
0012a8 9888      	cbi  __i2c_dir,__scl_bit
0012a9 dff9      	rcall __i2c_delay1
0012aa 9889      	cbi  __i2c_dir,__sda_bit
                 __i2c_delay2:
0012ab e365      	ldi  r22,53
                 __i2c_delay2l:
0012ac 956a      	dec  r22
0012ad f7f1      	brne __i2c_delay2l
0012ae 9508      	ret
                 _i2c_read:
0012af e078      	ldi  r23,8
                 __i2c_read0:
0012b0 9888      	cbi  __i2c_dir,__scl_bit
0012b1 dff1      	rcall __i2c_delay1
                 __i2c_read3:
0012b2 9b80      	sbis __i2c_pin,__scl_bit
0012b3 cffe      	rjmp __i2c_read3
0012b4 dfee      	rcall __i2c_delay1
0012b5 9488      	clc
0012b6 9981      	sbic __i2c_pin,__sda_bit
0012b7 9408      	sec
0012b8 9a88      	sbi  __i2c_dir,__scl_bit
0012b9 dff1      	rcall __i2c_delay2
0012ba 1fee      	rol  r30
0012bb 957a      	dec  r23
0012bc f799      	brne __i2c_read0
0012bd 9179      	ld   r23,y+
0012be 2377      	tst  r23
0012bf f411      	brne __i2c_read1
0012c0 9889      	cbi  __i2c_dir,__sda_bit
0012c1 c001      	rjmp __i2c_read2
                 __i2c_read1:
0012c2 9a89      	sbi  __i2c_dir,__sda_bit
                 __i2c_read2:
0012c3 dfdf      	rcall __i2c_delay1
0012c4 9888      	cbi  __i2c_dir,__scl_bit
0012c5 dfe5      	rcall __i2c_delay2
0012c6 9a88      	sbi  __i2c_dir,__scl_bit
0012c7 dfdb      	rcall __i2c_delay1
0012c8 9889      	cbi  __i2c_dir,__sda_bit
0012c9 cfd9      	rjmp __i2c_delay1
                 
                 _i2c_write:
0012ca 91e9      	ld   r30,y+
0012cb e078      	ldi  r23,8
                 __i2c_write0:
0012cc 0fee      	lsl  r30
0012cd f410      	brcc __i2c_write1
0012ce 9889      	cbi  __i2c_dir,__sda_bit
0012cf c001      	rjmp __i2c_write2
                 __i2c_write1:
0012d0 9a89      	sbi  __i2c_dir,__sda_bit
                 __i2c_write2:
0012d1 dfd9      	rcall __i2c_delay2
0012d2 9888      	cbi  __i2c_dir,__scl_bit
0012d3 dfcf      	rcall __i2c_delay1
                 __i2c_write3:
0012d4 9b80      	sbis __i2c_pin,__scl_bit
0012d5 cffe      	rjmp __i2c_write3
0012d6 dfcc      	rcall __i2c_delay1
0012d7 9a88      	sbi  __i2c_dir,__scl_bit
0012d8 957a      	dec  r23
0012d9 f791      	brne __i2c_write0
0012da 9889      	cbi  __i2c_dir,__sda_bit
0012db dfc7      	rcall __i2c_delay1
0012dc 9888      	cbi  __i2c_dir,__scl_bit
0012dd dfcd      	rcall __i2c_delay2
0012de e0e1      	ldi  r30,1
0012df 9981      	sbic __i2c_pin,__sda_bit
0012e0 27ee      	clr  r30
0012e1 9a88      	sbi  __i2c_dir,__scl_bit
0012e2 cfc0      	rjmp __i2c_delay1
                 
                 _delay_ms:
0012e3 91e9      	ld   r30,y+
0012e4 91f9      	ld   r31,y+
0012e5 9630      	adiw r30,0
0012e6 f039      	breq __delay_ms1
                 __delay_ms0:
                +
0012e7 ea80     +LDI R24 , LOW ( 0xFA0 )
0012e8 e09f     +LDI R25 , HIGH ( 0xFA0 )
                +__DELAY_USW_LOOP :
0012e9 9701     +SBIW R24 , 1
0012ea f7f1     +BRNE __DELAY_USW_LOOP
                 	__DELAY_USW 0xFA0
0012eb 95a8      	wdr
0012ec 9731      	sbiw r30,1
0012ed f7c9      	brne __delay_ms0
                 __delay_ms1:
0012ee 9508      	ret
                 
                 _frexp:
0012ef 91a9      	LD   R26,Y+
0012f0 91b9      	LD   R27,Y+
0012f1 91e9      	LD   R30,Y+
0012f2 91f9      	LD   R31,Y+
0012f3 9169      	LD   R22,Y+
0012f4 9179      	LD   R23,Y+
0012f5 fb77      	BST  R23,7
0012f6 0f66      	LSL  R22
0012f7 1f77      	ROL  R23
0012f8 2788      	CLR  R24
0012f9 577e      	SUBI R23,0x7E
0012fa 0b88      	SBC  R24,R24
0012fb 937d      	ST   X+,R23
0012fc 938c      	ST   X,R24
0012fd e77e      	LDI  R23,0x7E
0012fe 9576      	LSR  R23
0012ff 9567      	ROR  R22
001300 f07e      	BRTS __ANEGF1
001301 9508      	RET
                 
                 _ldexp:
001302 91a9      	LD   R26,Y+
001303 91b9      	LD   R27,Y+
001304 91e9      	LD   R30,Y+
001305 91f9      	LD   R31,Y+
001306 9169      	LD   R22,Y+
001307 9179      	LD   R23,Y+
001308 fb77      	BST  R23,7
001309 0f66      	LSL  R22
00130a 1f77      	ROL  R23
00130b 0f7a      	ADD  R23,R26
00130c 9576      	LSR  R23
00130d 9567      	ROR  R22
00130e f00e      	BRTS __ANEGF1
00130f 9508      	RET
                 
                 __ANEGF1:
001310 9730      	SBIW R30,0
001311 4060      	SBCI R22,0
001312 4070      	SBCI R23,0
001313 f009      	BREQ __ANEGF10
001314 5870      	SUBI R23,0x80
                 __ANEGF10:
001315 9508      	RET
                 
                 __ROUND_REPACK:
001316 2355      	TST  R21
001317 f442      	BRPL __REPACK
001318 3850      	CPI  R21,0x80
001319 f411      	BRNE __ROUND_REPACK0
00131a ffe0      	SBRS R30,0
00131b c004      	RJMP __REPACK
                 __ROUND_REPACK0:
00131c 9631      	ADIW R30,1
00131d 1f69      	ADC  R22,R25
00131e 1f79      	ADC  R23,R25
00131f f06b      	BRVS __REPACK1
                 
                 __REPACK:
001320 e850      	LDI  R21,0x80
001321 2757      	EOR  R21,R23
001322 f411      	BRNE __REPACK0
001323 935f      	PUSH R21
001324 c0cf      	RJMP __ZERORES
                 __REPACK0:
001325 3f5f      	CPI  R21,0xFF
001326 f031      	BREQ __REPACK1
001327 0f66      	LSL  R22
001328 0c00      	LSL  R0
001329 9557      	ROR  R21
00132a 9567      	ROR  R22
00132b 2f75      	MOV  R23,R21
00132c 9508      	RET
                 __REPACK1:
00132d 935f      	PUSH R21
00132e 2000      	TST  R0
00132f f00a      	BRMI __REPACK2
001330 c0cf      	RJMP __MAXRES
                 __REPACK2:
001331 c0c8      	RJMP __MINRES
                 
                 __UNPACK:
001332 e850      	LDI  R21,0x80
001333 2e19      	MOV  R1,R25
001334 2215      	AND  R1,R21
001335 0f88      	LSL  R24
001336 1f99      	ROL  R25
001337 2795      	EOR  R25,R21
001338 0f55      	LSL  R21
001339 9587      	ROR  R24
                 
                 __UNPACK1:
00133a e850      	LDI  R21,0x80
00133b 2e07      	MOV  R0,R23
00133c 2205      	AND  R0,R21
00133d 0f66      	LSL  R22
00133e 1f77      	ROL  R23
00133f 2775      	EOR  R23,R21
001340 0f55      	LSL  R21
001341 9567      	ROR  R22
001342 9508      	RET
                 
                 __CFD1U:
001343 9468      	SET
001344 c001      	RJMP __CFD1U0
                 __CFD1:
001345 94e8      	CLT
                 __CFD1U0:
001346 935f      	PUSH R21
001347 dff2      	RCALL __UNPACK1
001348 3870      	CPI  R23,0x80
001349 f018      	BRLO __CFD10
00134a 3f7f      	CPI  R23,0xFF
00134b f408      	BRCC __CFD10
00134c c0a7      	RJMP __ZERORES
                 __CFD10:
00134d e156      	LDI  R21,22
00134e 1b57      	SUB  R21,R23
00134f f4aa      	BRPL __CFD11
001350 9551      	NEG  R21
001351 3058      	CPI  R21,8
001352 f40e      	BRTC __CFD19
001353 3059      	CPI  R21,9
                 __CFD19:
001354 f030      	BRLO __CFD17
001355 efef      	SER  R30
001356 efff      	SER  R31
001357 ef6f      	SER  R22
001358 e77f      	LDI  R23,0x7F
001359 f977      	BLD  R23,7
00135a c01a      	RJMP __CFD15
                 __CFD17:
00135b 2777      	CLR  R23
00135c 2355      	TST  R21
00135d f0b9      	BREQ __CFD15
                 __CFD18:
00135e 0fee      	LSL  R30
00135f 1fff      	ROL  R31
001360 1f66      	ROL  R22
001361 1f77      	ROL  R23
001362 955a      	DEC  R21
001363 f7d1      	BRNE __CFD18
001364 c010      	RJMP __CFD15
                 __CFD11:
001365 2777      	CLR  R23
                 __CFD12:
001366 3058      	CPI  R21,8
001367 f028      	BRLO __CFD13
001368 2fef      	MOV  R30,R31
001369 2ff6      	MOV  R31,R22
00136a 2f67      	MOV  R22,R23
00136b 5058      	SUBI R21,8
00136c cff9      	RJMP __CFD12
                 __CFD13:
00136d 2355      	TST  R21
00136e f031      	BREQ __CFD15
                 __CFD14:
00136f 9576      	LSR  R23
001370 9567      	ROR  R22
001371 95f7      	ROR  R31
001372 95e7      	ROR  R30
001373 955a      	DEC  R21
001374 f7d1      	BRNE __CFD14
                 __CFD15:
001375 2000      	TST  R0
001376 f40a      	BRPL __CFD16
001377 d149      	RCALL __ANEGD1
                 __CFD16:
001378 915f      	POP  R21
001379 9508      	RET
                 
                 __CDF1U:
00137a 9468      	SET
00137b c001      	RJMP __CDF1U0
                 __CDF1:
00137c 94e8      	CLT
                 __CDF1U0:
00137d 9730      	SBIW R30,0
00137e 4060      	SBCI R22,0
00137f 4070      	SBCI R23,0
001380 f0b1      	BREQ __CDF10
001381 2400      	CLR  R0
001382 f026      	BRTS __CDF11
001383 2377      	TST  R23
001384 f412      	BRPL __CDF11
001385 9400      	COM  R0
001386 d13a      	RCALL __ANEGD1
                 __CDF11:
001387 2e17      	MOV  R1,R23
001388 e17e      	LDI  R23,30
001389 2011      	TST  R1
                 __CDF12:
00138a f032      	BRMI __CDF13
00138b 957a      	DEC  R23
00138c 0fee      	LSL  R30
00138d 1fff      	ROL  R31
00138e 1f66      	ROL  R22
00138f 1c11      	ROL  R1
001390 cff9      	RJMP __CDF12
                 __CDF13:
001391 2fef      	MOV  R30,R31
001392 2ff6      	MOV  R31,R22
001393 2d61      	MOV  R22,R1
001394 935f      	PUSH R21
001395 df8a      	RCALL __REPACK
001396 915f      	POP  R21
                 __CDF10:
001397 9508      	RET
                 
                 __SWAPACC:
001398 934f      	PUSH R20
001399 01af      	MOVW R20,R30
00139a 01fd      	MOVW R30,R26
00139b 01da      	MOVW R26,R20
00139c 01ab      	MOVW R20,R22
00139d 01bc      	MOVW R22,R24
00139e 01ca      	MOVW R24,R20
00139f 2d40      	MOV  R20,R0
0013a0 2c01      	MOV  R0,R1
0013a1 2e14      	MOV  R1,R20
0013a2 914f      	POP  R20
0013a3 9508      	RET
                 
                 __UADD12:
0013a4 0fea      	ADD  R30,R26
0013a5 1ffb      	ADC  R31,R27
0013a6 1f68      	ADC  R22,R24
0013a7 9508      	RET
                 
                 __NEGMAN1:
0013a8 95e0      	COM  R30
0013a9 95f0      	COM  R31
0013aa 9560      	COM  R22
0013ab 5fef      	SUBI R30,-1
0013ac 4fff      	SBCI R31,-1
0013ad 4f6f      	SBCI R22,-1
0013ae 9508      	RET
                 
                 __SUBF12:
0013af 935f      	PUSH R21
0013b0 df81      	RCALL __UNPACK
0013b1 3890      	CPI  R25,0x80
0013b2 f171      	BREQ __ADDF129
0013b3 e850      	LDI  R21,0x80
0013b4 2615      	EOR  R1,R21
                 
0013b5 c004      	RJMP __ADDF120
                 
                 __ADDF12:
0013b6 935f      	PUSH R21
0013b7 df7a      	RCALL __UNPACK
0013b8 3890      	CPI  R25,0x80
0013b9 f139      	BREQ __ADDF129
                 
                 __ADDF120:
0013ba 3870      	CPI  R23,0x80
0013bb f121      	BREQ __ADDF128
                 __ADDF121:
0013bc 2f57      	MOV  R21,R23
0013bd 1b59      	SUB  R21,R25
0013be f12b      	BRVS __ADDF1211
0013bf f412      	BRPL __ADDF122
0013c0 dfd7      	RCALL __SWAPACC
0013c1 cffa      	RJMP __ADDF121
                 __ADDF122:
0013c2 3158      	CPI  R21,24
0013c3 f018      	BRLO __ADDF123
0013c4 27aa      	CLR  R26
0013c5 27bb      	CLR  R27
0013c6 2788      	CLR  R24
                 __ADDF123:
0013c7 3058      	CPI  R21,8
0013c8 f028      	BRLO __ADDF124
0013c9 2fab      	MOV  R26,R27
0013ca 2fb8      	MOV  R27,R24
0013cb 2788      	CLR  R24
0013cc 5058      	SUBI R21,8
0013cd cff9      	RJMP __ADDF123
                 __ADDF124:
0013ce 2355      	TST  R21
0013cf f029      	BREQ __ADDF126
                 __ADDF125:
0013d0 9586      	LSR  R24
0013d1 95b7      	ROR  R27
0013d2 95a7      	ROR  R26
0013d3 955a      	DEC  R21
0013d4 f7d9      	BRNE __ADDF125
                 __ADDF126:
0013d5 2d50      	MOV  R21,R0
0013d6 2551      	EOR  R21,R1
0013d7 f072      	BRMI __ADDF127
0013d8 dfcb      	RCALL __UADD12
0013d9 f438      	BRCC __ADDF129
0013da 9567      	ROR  R22
0013db 95f7      	ROR  R31
0013dc 95e7      	ROR  R30
0013dd 9573      	INC  R23
0013de f413      	BRVC __ADDF129
0013df c020      	RJMP __MAXRES
                 __ADDF128:
0013e0 dfb7      	RCALL __SWAPACC
                 __ADDF129:
0013e1 df3e      	RCALL __REPACK
0013e2 915f      	POP  R21
0013e3 9508      	RET
                 __ADDF1211:
0013e4 f7d8      	BRCC __ADDF128
0013e5 cffb      	RJMP __ADDF129
                 __ADDF127:
0013e6 1bea      	SUB  R30,R26
0013e7 0bfb      	SBC  R31,R27
0013e8 0b68      	SBC  R22,R24
0013e9 f051      	BREQ __ZERORES
0013ea f410      	BRCC __ADDF1210
0013eb 9400      	COM  R0
0013ec dfbb      	RCALL __NEGMAN1
                 __ADDF1210:
0013ed 2366      	TST  R22
0013ee f392      	BRMI __ADDF129
0013ef 0fee      	LSL  R30
0013f0 1fff      	ROL  R31
0013f1 1f66      	ROL  R22
0013f2 957a      	DEC  R23
0013f3 f7cb      	BRVC __ADDF1210
                 
                 __ZERORES:
0013f4 27ee      	CLR  R30
0013f5 27ff      	CLR  R31
0013f6 2766      	CLR  R22
0013f7 2777      	CLR  R23
0013f8 915f      	POP  R21
0013f9 9508      	RET
                 
                 __MINRES:
0013fa efef      	SER  R30
0013fb efff      	SER  R31
0013fc e76f      	LDI  R22,0x7F
0013fd ef7f      	SER  R23
0013fe 915f      	POP  R21
0013ff 9508      	RET
                 
                 __MAXRES:
001400 efef      	SER  R30
001401 efff      	SER  R31
001402 e76f      	LDI  R22,0x7F
001403 e77f      	LDI  R23,0x7F
001404 915f      	POP  R21
001405 9508      	RET
                 
                 __MULF12:
001406 935f      	PUSH R21
001407 df2a      	RCALL __UNPACK
001408 3870      	CPI  R23,0x80
001409 f351      	BREQ __ZERORES
00140a 3890      	CPI  R25,0x80
00140b f341      	BREQ __ZERORES
00140c 2401      	EOR  R0,R1
00140d 9408      	SEC
00140e 1f79      	ADC  R23,R25
00140f f423      	BRVC __MULF124
001410 f31c      	BRLT __ZERORES
                 __MULF125:
001411 2000      	TST  R0
001412 f33a      	BRMI __MINRES
001413 cfec      	RJMP __MAXRES
                 __MULF124:
001414 920f      	PUSH R0
001415 931f      	PUSH R17
001416 932f      	PUSH R18
001417 933f      	PUSH R19
001418 934f      	PUSH R20
001419 2711      	CLR  R17
00141a 2722      	CLR  R18
00141b 2799      	CLR  R25
00141c 9f68      	MUL  R22,R24
00141d 01a0      	MOVW R20,R0
00141e 9f8f      	MUL  R24,R31
00141f 2d30      	MOV  R19,R0
001420 0d41      	ADD  R20,R1
001421 1f59      	ADC  R21,R25
001422 9f6b      	MUL  R22,R27
001423 0d30      	ADD  R19,R0
001424 1d41      	ADC  R20,R1
001425 1f59      	ADC  R21,R25
001426 9f8e      	MUL  R24,R30
001427 d027      	RCALL __MULF126
001428 9fbf      	MUL  R27,R31
001429 d025      	RCALL __MULF126
00142a 9f6a      	MUL  R22,R26
00142b d023      	RCALL __MULF126
00142c 9fbe      	MUL  R27,R30
00142d d01d      	RCALL __MULF127
00142e 9faf      	MUL  R26,R31
00142f d01b      	RCALL __MULF127
001430 9fae      	MUL  R26,R30
001431 0d11      	ADD  R17,R1
001432 1f29      	ADC  R18,R25
001433 1f39      	ADC  R19,R25
001434 1f49      	ADC  R20,R25
001435 1f59      	ADC  R21,R25
001436 2fe3      	MOV  R30,R19
001437 2ff4      	MOV  R31,R20
001438 2f65      	MOV  R22,R21
001439 2f52      	MOV  R21,R18
00143a 914f      	POP  R20
00143b 913f      	POP  R19
00143c 912f      	POP  R18
00143d 911f      	POP  R17
00143e 900f      	POP  R0
00143f 2366      	TST  R22
001440 f02a      	BRMI __MULF122
001441 0f55      	LSL  R21
001442 1fee      	ROL  R30
001443 1fff      	ROL  R31
001444 1f66      	ROL  R22
001445 c002      	RJMP __MULF123
                 __MULF122:
001446 9573      	INC  R23
001447 f24b      	BRVS __MULF125
                 __MULF123:
001448 decd      	RCALL __ROUND_REPACK
001449 915f      	POP  R21
00144a 9508      	RET
                 
                 __MULF127:
00144b 0d10      	ADD  R17,R0
00144c 1d21      	ADC  R18,R1
00144d 1f39      	ADC  R19,R25
00144e c002      	RJMP __MULF128
                 __MULF126:
00144f 0d20      	ADD  R18,R0
001450 1d31      	ADC  R19,R1
                 __MULF128:
001451 1f49      	ADC  R20,R25
001452 1f59      	ADC  R21,R25
001453 9508      	RET
                 
                 __DIVF21:
001454 935f      	PUSH R21
001455 dedc      	RCALL __UNPACK
001456 3870      	CPI  R23,0x80
001457 f421      	BRNE __DIVF210
001458 2011      	TST  R1
                 __DIVF211:
001459 f40a      	BRPL __DIVF219
00145a cf9f      	RJMP __MINRES
                 __DIVF219:
00145b cfa4      	RJMP __MAXRES
                 __DIVF210:
00145c 3890      	CPI  R25,0x80
00145d f409      	BRNE __DIVF218
                 __DIVF217:
00145e cf95      	RJMP __ZERORES
                 __DIVF218:
00145f 2401      	EOR  R0,R1
001460 9408      	SEC
001461 0b97      	SBC  R25,R23
001462 f41b      	BRVC __DIVF216
001463 f3d4      	BRLT __DIVF217
001464 2000      	TST  R0
001465 cff3      	RJMP __DIVF211
                 __DIVF216:
001466 2f79      	MOV  R23,R25
001467 931f      	PUSH R17
001468 932f      	PUSH R18
001469 933f      	PUSH R19
00146a 934f      	PUSH R20
00146b 2411      	CLR  R1
00146c 2711      	CLR  R17
00146d 2722      	CLR  R18
00146e 2733      	CLR  R19
00146f 2744      	CLR  R20
001470 2755      	CLR  R21
001471 e290      	LDI  R25,32
                 __DIVF212:
001472 17ae      	CP   R26,R30
001473 07bf      	CPC  R27,R31
001474 0786      	CPC  R24,R22
001475 0741      	CPC  R20,R17
001476 f030      	BRLO __DIVF213
001477 1bae      	SUB  R26,R30
001478 0bbf      	SBC  R27,R31
001479 0b86      	SBC  R24,R22
00147a 0b41      	SBC  R20,R17
00147b 9408      	SEC
00147c c001      	RJMP __DIVF214
                 __DIVF213:
00147d 9488      	CLC
                 __DIVF214:
00147e 1f55      	ROL  R21
00147f 1f22      	ROL  R18
001480 1f33      	ROL  R19
001481 1c11      	ROL  R1
001482 1faa      	ROL  R26
001483 1fbb      	ROL  R27
001484 1f88      	ROL  R24
001485 1f44      	ROL  R20
001486 959a      	DEC  R25
001487 f751      	BRNE __DIVF212
001488 01f9      	MOVW R30,R18
001489 2d61      	MOV  R22,R1
00148a 914f      	POP  R20
00148b 913f      	POP  R19
00148c 912f      	POP  R18
00148d 911f      	POP  R17
00148e 2366      	TST  R22
00148f f032      	BRMI __DIVF215
001490 0f55      	LSL  R21
001491 1fee      	ROL  R30
001492 1fff      	ROL  R31
001493 1f66      	ROL  R22
001494 957a      	DEC  R23
001495 f243      	BRVS __DIVF217
                 __DIVF215:
001496 de7f      	RCALL __ROUND_REPACK
001497 915f      	POP  R21
001498 9508      	RET
                 
                 __CMPF12:
001499 2399      	TST  R25
00149a f09a      	BRMI __CMPF120
00149b 2377      	TST  R23
00149c f042      	BRMI __CMPF121
00149d 1797      	CP   R25,R23
00149e f048      	BRLO __CMPF122
00149f f429      	BRNE __CMPF121
0014a0 17ae      	CP   R26,R30
0014a1 07bf      	CPC  R27,R31
0014a2 0786      	CPC  R24,R22
0014a3 f020      	BRLO __CMPF122
0014a4 f031      	BREQ __CMPF123
                 __CMPF121:
0014a5 9498      	CLZ
0014a6 9488      	CLC
0014a7 9508      	RET
                 __CMPF122:
0014a8 9498      	CLZ
0014a9 9408      	SEC
0014aa 9508      	RET
                 __CMPF123:
0014ab 9418      	SEZ
0014ac 9488      	CLC
0014ad 9508      	RET
                 __CMPF120:
0014ae 2377      	TST  R23
0014af f7c2      	BRPL __CMPF122
0014b0 1797      	CP   R25,R23
0014b1 f398      	BRLO __CMPF121
0014b2 f7a9      	BRNE __CMPF122
0014b3 17ea      	CP   R30,R26
0014b4 07fb      	CPC  R31,R27
0014b5 0768      	CPC  R22,R24
0014b6 f388      	BRLO __CMPF122
0014b7 f399      	BREQ __CMPF123
0014b8 cfec      	RJMP __CMPF121
                 
                 __ADDW2R15:
0014b9 2400      	CLR  R0
0014ba 0daf      	ADD  R26,R15
0014bb 1db0      	ADC  R27,R0
0014bc 9508      	RET
                 
                 __ANEGW1:
0014bd 95f1      	NEG  R31
0014be 95e1      	NEG  R30
0014bf 40f0      	SBCI R31,0
0014c0 9508      	RET
                 
                 __ANEGD1:
0014c1 95f0      	COM  R31
0014c2 9560      	COM  R22
0014c3 9570      	COM  R23
0014c4 95e1      	NEG  R30
0014c5 4fff      	SBCI R31,-1
0014c6 4f6f      	SBCI R22,-1
0014c7 4f7f      	SBCI R23,-1
0014c8 9508      	RET
                 
                 __CWD1:
0014c9 2f6f      	MOV  R22,R31
0014ca 0f66      	ADD  R22,R22
0014cb 0b66      	SBC  R22,R22
0014cc 2f76      	MOV  R23,R22
0014cd 9508      	RET
                 
                 __MULW12U:
0014ce 9ffa      	MUL  R31,R26
0014cf 2df0      	MOV  R31,R0
0014d0 9feb      	MUL  R30,R27
0014d1 0df0      	ADD  R31,R0
0014d2 9fea      	MUL  R30,R26
0014d3 2de0      	MOV  R30,R0
0014d4 0df1      	ADD  R31,R1
0014d5 9508      	RET
                 
                 __MULW12:
0014d6 d02a      	RCALL __CHKSIGNW
0014d7 dff6      	RCALL __MULW12U
0014d8 f40e      	BRTC __MULW121
0014d9 dfe3      	RCALL __ANEGW1
                 __MULW121:
0014da 9508      	RET
                 
                 __DIVW21U:
0014db 2400      	CLR  R0
0014dc 2411      	CLR  R1
0014dd e190      	LDI  R25,16
                 __DIVW21U1:
0014de 0faa      	LSL  R26
0014df 1fbb      	ROL  R27
0014e0 1c00      	ROL  R0
0014e1 1c11      	ROL  R1
0014e2 1a0e      	SUB  R0,R30
0014e3 0a1f      	SBC  R1,R31
0014e4 f418      	BRCC __DIVW21U2
0014e5 0e0e      	ADD  R0,R30
0014e6 1e1f      	ADC  R1,R31
0014e7 c001      	RJMP __DIVW21U3
                 __DIVW21U2:
0014e8 60a1      	SBR  R26,1
                 __DIVW21U3:
0014e9 959a      	DEC  R25
0014ea f799      	BRNE __DIVW21U1
0014eb 01fd      	MOVW R30,R26
0014ec 01d0      	MOVW R26,R0
0014ed 9508      	RET
                 
                 __DIVW21:
0014ee d012      	RCALL __CHKSIGNW
0014ef dfeb      	RCALL __DIVW21U
0014f0 f40e      	BRTC __DIVW211
0014f1 dfcb      	RCALL __ANEGW1
                 __DIVW211:
0014f2 9508      	RET
                 
                 __MODW21:
0014f3 94e8      	CLT
0014f4 ffb7      	SBRS R27,7
0014f5 c004      	RJMP __MODW211
0014f6 95a0      	COM  R26
0014f7 95b0      	COM  R27
0014f8 9611      	ADIW R26,1
0014f9 9468      	SET
                 __MODW211:
0014fa fdf7      	SBRC R31,7
0014fb dfc1      	RCALL __ANEGW1
0014fc dfde      	RCALL __DIVW21U
0014fd 01fd      	MOVW R30,R26
0014fe f40e      	BRTC __MODW212
0014ff dfbd      	RCALL __ANEGW1
                 __MODW212:
001500 9508      	RET
                 
                 __CHKSIGNW:
001501 94e8      	CLT
001502 fff7      	SBRS R31,7
001503 c002      	RJMP __CHKSW1
001504 dfb8      	RCALL __ANEGW1
001505 9468      	SET
                 __CHKSW1:
001506 ffb7      	SBRS R27,7
001507 c006      	RJMP __CHKSW2
001508 95a0      	COM  R26
001509 95b0      	COM  R27
00150a 9611      	ADIW R26,1
00150b f800      	BLD  R0,0
00150c 9403      	INC  R0
00150d fa00      	BST  R0,0
                 __CHKSW2:
00150e 9508      	RET
                 
                 __GETW1P:
00150f 91ed      	LD   R30,X+
001510 91fc      	LD   R31,X
001511 9711      	SBIW R26,1
001512 9508      	RET
                 
                 __PUTDP1:
001513 93ed      	ST   X+,R30
001514 93fd      	ST   X+,R31
001515 936d      	ST   X+,R22
001516 937c      	ST   X,R23
001517 9508      	RET
                 
                 __GETW1PF:
001518 9005      	LPM  R0,Z+
001519 91f4      	LPM  R31,Z
00151a 2de0      	MOV  R30,R0
00151b 9508      	RET
                 
                 __GETD1S0:
00151c 81e8      	LD   R30,Y
00151d 81f9      	LDD  R31,Y+1
00151e 816a      	LDD  R22,Y+2
00151f 817b      	LDD  R23,Y+3
001520 9508      	RET
                 
                 __PUTD1S0:
001521 83e8      	ST   Y,R30
001522 83f9      	STD  Y+1,R31
001523 836a      	STD  Y+2,R22
001524 837b      	STD  Y+3,R23
001525 9508      	RET
                 
                 __PUTPARD1:
001526 937a      	ST   -Y,R23
001527 936a      	ST   -Y,R22
001528 93fa      	ST   -Y,R31
001529 93ea      	ST   -Y,R30
00152a 9508      	RET
                 
                 __SWAPD12:
00152b 2e18      	MOV  R1,R24
00152c 2f86      	MOV  R24,R22
00152d 2d61      	MOV  R22,R1
00152e 2e19      	MOV  R1,R25
00152f 2f97      	MOV  R25,R23
001530 2d71      	MOV  R23,R1
                 
                 __SWAPW12:
001531 2e1b      	MOV  R1,R27
001532 2fbf      	MOV  R27,R31
001533 2df1      	MOV  R31,R1
                 
                 __SWAPB12:
001534 2e1a      	MOV  R1,R26
001535 2fae      	MOV  R26,R30
001536 2de1      	MOV  R30,R1
001537 9508      	RET
                 
                 __CPD10:
001538 9730      	SBIW R30,0
001539 4060      	SBCI R22,0
00153a 4070      	SBCI R23,0
00153b 9508      	RET
                 
                 __CPD02:
00153c 2400      	CLR  R0
00153d 160a      	CP   R0,R26
00153e 060b      	CPC  R0,R27
00153f 0608      	CPC  R0,R24
001540 0609      	CPC  R0,R25
001541 9508      	RET
                 
                 __CPD12:
001542 17ea      	CP   R30,R26
001543 07fb      	CPC  R31,R27
001544 0768      	CPC  R22,R24
001545 0779      	CPC  R23,R25
001546 9508      	RET
                 
                 __SAVELOCR6:
001547 935a      	ST   -Y,R21
                 __SAVELOCR5:
001548 934a      	ST   -Y,R20
                 __SAVELOCR4:
001549 933a      	ST   -Y,R19
                 __SAVELOCR3:
00154a 932a      	ST   -Y,R18
                 __SAVELOCR2:
00154b 931a      	ST   -Y,R17
00154c 930a      	ST   -Y,R16
00154d 9508      	RET
                 
                 __LOADLOCR6:
00154e 815d      	LDD  R21,Y+5
                 __LOADLOCR5:
00154f 814c      	LDD  R20,Y+4
                 __LOADLOCR4:
001550 813b      	LDD  R19,Y+3
                 __LOADLOCR3:
001551 812a      	LDD  R18,Y+2
                 __LOADLOCR2:
001552 8119      	LDD  R17,Y+1
001553 8108      	LD   R16,Y
001554 9508      	RET
                 
                 ;END OF CODE MARKER
                 __END_OF_CODE:


RESOURCE USE INFORMATION
------------------------

Notice:
The register and instruction counts are symbol table hit counts,
and hence implicitly used resources are not counted, eg, the
'lpm' instruction without operands implicitly uses r0 and z,
none of which are counted.

x,y,z are separate entities in the symbol table and are
counted separately from r26..r31 here.

.dseg memory usage only counts static data declared with .byte

ATmega128 register use summary:
r0 :  58 r1 :  37 r2 :   1 r3 :   0 r4 :  32 r5 :  14 r6 :   5 r7 :   2 
r8 :  16 r9 :   4 r10:  11 r11:   4 r12:   6 r13:   1 r14:   0 r15:   6 
r16:  85 r17:  74 r18:  56 r19:  32 r20:  40 r21:  86 r22: 122 r23: 118 
r24:  83 r25:  67 r26: 278 r27: 130 r28:  37 r29:   1 r30:1109 r31: 459 
x  :  31 y  : 543 z  :  21 
Registers used: 33 out of 35 (94.3%)

ATmega128 instruction use summary:
.lds  :   0 .lds.l:   0 .sts  :   0 .sts.l:   0 adc   :  32 add   :  30 
adiw  :  51 and   :   5 andi  :  14 asr   :   1 bclr  :   0 bld   :   4 
brbc  :   0 brbs  :   0 brcc  :   8 brcs  :   1 break :   0 breq  :  53 
brge  :  11 brhc  :   0 brhs  :   0 brid  :   0 brie  :   0 brlo  :  18 
brlt  :   7 brmi  :  11 brne  : 116 brpl  :   8 brsh  :   5 brtc  :   5 
brts  :   3 brvc  :   4 brvs  :   4 bset  :   0 bst   :   5 call  : 577 
cbi   :  25 cbr   :   1 clc   :   4 clh   :   0 cli   :   2 cln   :   0 
clr   :  59 cls   :   0 clt   :   5 clv   :   0 clz   :   2 com   :  12 
cp    :  32 cpc   :  64 cpi   :  95 cpse  :   0 dec   :  16 des   :   0 
elpm  :   0 eor   :   7 fmul  :   0 fmuls :   0 fmulsu:   0 icall :   2 
ijmp  :   0 in    :   7 inc   :   3 jmp   :  66 ld    :  92 ldd   : 170 
ldi   : 716 lds   : 133 lpm   :  18 lsl   :  20 lsr   :   5 mov   :  57 
movw  : 100 mul   :  13 muls  :   0 mulsu :   0 neg   :   4 nop   :   1 
or    :   3 ori   :  10 out   :  27 pop   :  37 push  :  37 rcall : 128 
ret   : 144 reti  :   3 rjmp  : 246 rol   :  31 ror   :  18 sbc   :  13 
sbci  :  23 sbi   :  25 sbic  :  24 sbis  :  28 sbiw  :  56 sbr   :   3 
sbrc  :   4 sbrs  :  14 sec   :   6 seh   :   0 sei   :   2 sen   :   0 
ser   :   8 ses   :   0 set   :   5 sev   :   0 sez   :   1 sleep :   0 
spm   :   0 st    : 253 std   :  66 sts   : 157 sub   :   9 subi  :  54 
swap  :   2 tst   :  22 wdr   :   1 
Instructions used: 85 out of 117 (72.6%)

ATmega128 memory use summary [bytes]:
Segment   Begin    End      Code   Data   Used    Size   Use%
---------------------------------------------------------------
[.cseg] 0x000000 0x002aaa  10186    736  10922  131072   8.3%
[.dseg] 0x000100 0x00068d      0    397    397    4351   9.1%
[.eseg] 0x000000 0x000000      0      0      0    4096   0.0%

Assembly complete, 0 errors, 7 warnings
